
DiscoveryHMC5885L.elf:     file format elf32-littlearm

Sections:
Idx Name          Size      VMA       LMA       File off  Algn
  0 .isr_vector   000000c0  08000000  08000000  00010000  2**0
                  CONTENTS, ALLOC, LOAD, READONLY, DATA
  1 .text         0000407c  080000c0  080000c0  000100c0  2**2
                  CONTENTS, ALLOC, LOAD, READONLY, CODE
  2 .rodata       000001b0  08004140  08004140  00014140  2**3
                  CONTENTS, ALLOC, LOAD, READONLY, DATA
  3 .init_array   00000004  080042f0  080042f0  000142f0  2**2
                  CONTENTS, ALLOC, LOAD, DATA
  4 .fini_array   00000004  080042f4  080042f4  000142f4  2**2
                  CONTENTS, ALLOC, LOAD, DATA
  5 .data         00000010  20000000  080042f8  00020000  2**2
                  CONTENTS, ALLOC, LOAD, DATA
  6 .bss          0000009c  20000010  08004308  00020010  2**2
                  ALLOC
  7 ._user_heap_stack 00000600  200000ac  08004308  000200ac  2**0
                  ALLOC
  8 .ARM.attributes 00000028  00000000  00000000  00020010  2**0
                  CONTENTS, READONLY
  9 .debug_info   0000d2ee  00000000  00000000  00020038  2**0
                  CONTENTS, READONLY, DEBUGGING
 10 .debug_abbrev 00001c75  00000000  00000000  0002d326  2**0
                  CONTENTS, READONLY, DEBUGGING
 11 .debug_loc    00004471  00000000  00000000  0002ef9b  2**0
                  CONTENTS, READONLY, DEBUGGING
 12 .debug_aranges 00000578  00000000  00000000  00033410  2**3
                  CONTENTS, READONLY, DEBUGGING
 13 .debug_ranges 000007a8  00000000  00000000  00033988  2**3
                  CONTENTS, READONLY, DEBUGGING
 14 .debug_line   00003d8d  00000000  00000000  00034130  2**0
                  CONTENTS, READONLY, DEBUGGING
 15 .debug_str    00002197  00000000  00000000  00037ebd  2**0
                  CONTENTS, READONLY, DEBUGGING
 16 .comment      0000007c  00000000  00000000  0003a054  2**0
                  CONTENTS, READONLY
 17 .debug_frame  0000134c  00000000  00000000  0003a0d0  2**2
                  CONTENTS, READONLY, DEBUGGING

Disassembly of section .text:

080000c0 <__do_global_dtors_aux>:
 80000c0:	b510      	push	{r4, lr}
 80000c2:	4c06      	ldr	r4, [pc, #24]	; (80000dc <__do_global_dtors_aux+0x1c>)
 80000c4:	7823      	ldrb	r3, [r4, #0]
 80000c6:	2b00      	cmp	r3, #0
 80000c8:	d107      	bne.n	80000da <__do_global_dtors_aux+0x1a>
 80000ca:	4b05      	ldr	r3, [pc, #20]	; (80000e0 <__do_global_dtors_aux+0x20>)
 80000cc:	2b00      	cmp	r3, #0
 80000ce:	d002      	beq.n	80000d6 <__do_global_dtors_aux+0x16>
 80000d0:	4804      	ldr	r0, [pc, #16]	; (80000e4 <__do_global_dtors_aux+0x24>)
 80000d2:	e000      	b.n	80000d6 <__do_global_dtors_aux+0x16>
 80000d4:	bf00      	nop
 80000d6:	2301      	movs	r3, #1
 80000d8:	7023      	strb	r3, [r4, #0]
 80000da:	bd10      	pop	{r4, pc}
 80000dc:	20000010 	.word	0x20000010
 80000e0:	00000000 	.word	0x00000000
 80000e4:	08004124 	.word	0x08004124

080000e8 <frame_dummy>:
 80000e8:	4b04      	ldr	r3, [pc, #16]	; (80000fc <frame_dummy+0x14>)
 80000ea:	b510      	push	{r4, lr}
 80000ec:	2b00      	cmp	r3, #0
 80000ee:	d003      	beq.n	80000f8 <frame_dummy+0x10>
 80000f0:	4903      	ldr	r1, [pc, #12]	; (8000100 <frame_dummy+0x18>)
 80000f2:	4804      	ldr	r0, [pc, #16]	; (8000104 <frame_dummy+0x1c>)
 80000f4:	e000      	b.n	80000f8 <frame_dummy+0x10>
 80000f6:	bf00      	nop
 80000f8:	bd10      	pop	{r4, pc}
 80000fa:	46c0      	nop			; (mov r8, r8)
 80000fc:	00000000 	.word	0x00000000
 8000100:	20000014 	.word	0x20000014
 8000104:	08004124 	.word	0x08004124

08000108 <__udivsi3>:
 8000108:	2200      	movs	r2, #0
 800010a:	0843      	lsrs	r3, r0, #1
 800010c:	428b      	cmp	r3, r1
 800010e:	d374      	bcc.n	80001fa <__udivsi3+0xf2>
 8000110:	0903      	lsrs	r3, r0, #4
 8000112:	428b      	cmp	r3, r1
 8000114:	d35f      	bcc.n	80001d6 <__udivsi3+0xce>
 8000116:	0a03      	lsrs	r3, r0, #8
 8000118:	428b      	cmp	r3, r1
 800011a:	d344      	bcc.n	80001a6 <__udivsi3+0x9e>
 800011c:	0b03      	lsrs	r3, r0, #12
 800011e:	428b      	cmp	r3, r1
 8000120:	d328      	bcc.n	8000174 <__udivsi3+0x6c>
 8000122:	0c03      	lsrs	r3, r0, #16
 8000124:	428b      	cmp	r3, r1
 8000126:	d30d      	bcc.n	8000144 <__udivsi3+0x3c>
 8000128:	22ff      	movs	r2, #255	; 0xff
 800012a:	0209      	lsls	r1, r1, #8
 800012c:	ba12      	rev	r2, r2
 800012e:	0c03      	lsrs	r3, r0, #16
 8000130:	428b      	cmp	r3, r1
 8000132:	d302      	bcc.n	800013a <__udivsi3+0x32>
 8000134:	1212      	asrs	r2, r2, #8
 8000136:	0209      	lsls	r1, r1, #8
 8000138:	d065      	beq.n	8000206 <__udivsi3+0xfe>
 800013a:	0b03      	lsrs	r3, r0, #12
 800013c:	428b      	cmp	r3, r1
 800013e:	d319      	bcc.n	8000174 <__udivsi3+0x6c>
 8000140:	e000      	b.n	8000144 <__udivsi3+0x3c>
 8000142:	0a09      	lsrs	r1, r1, #8
 8000144:	0bc3      	lsrs	r3, r0, #15
 8000146:	428b      	cmp	r3, r1
 8000148:	d301      	bcc.n	800014e <__udivsi3+0x46>
 800014a:	03cb      	lsls	r3, r1, #15
 800014c:	1ac0      	subs	r0, r0, r3
 800014e:	4152      	adcs	r2, r2
 8000150:	0b83      	lsrs	r3, r0, #14
 8000152:	428b      	cmp	r3, r1
 8000154:	d301      	bcc.n	800015a <__udivsi3+0x52>
 8000156:	038b      	lsls	r3, r1, #14
 8000158:	1ac0      	subs	r0, r0, r3
 800015a:	4152      	adcs	r2, r2
 800015c:	0b43      	lsrs	r3, r0, #13
 800015e:	428b      	cmp	r3, r1
 8000160:	d301      	bcc.n	8000166 <__udivsi3+0x5e>
 8000162:	034b      	lsls	r3, r1, #13
 8000164:	1ac0      	subs	r0, r0, r3
 8000166:	4152      	adcs	r2, r2
 8000168:	0b03      	lsrs	r3, r0, #12
 800016a:	428b      	cmp	r3, r1
 800016c:	d301      	bcc.n	8000172 <__udivsi3+0x6a>
 800016e:	030b      	lsls	r3, r1, #12
 8000170:	1ac0      	subs	r0, r0, r3
 8000172:	4152      	adcs	r2, r2
 8000174:	0ac3      	lsrs	r3, r0, #11
 8000176:	428b      	cmp	r3, r1
 8000178:	d301      	bcc.n	800017e <__udivsi3+0x76>
 800017a:	02cb      	lsls	r3, r1, #11
 800017c:	1ac0      	subs	r0, r0, r3
 800017e:	4152      	adcs	r2, r2
 8000180:	0a83      	lsrs	r3, r0, #10
 8000182:	428b      	cmp	r3, r1
 8000184:	d301      	bcc.n	800018a <__udivsi3+0x82>
 8000186:	028b      	lsls	r3, r1, #10
 8000188:	1ac0      	subs	r0, r0, r3
 800018a:	4152      	adcs	r2, r2
 800018c:	0a43      	lsrs	r3, r0, #9
 800018e:	428b      	cmp	r3, r1
 8000190:	d301      	bcc.n	8000196 <__udivsi3+0x8e>
 8000192:	024b      	lsls	r3, r1, #9
 8000194:	1ac0      	subs	r0, r0, r3
 8000196:	4152      	adcs	r2, r2
 8000198:	0a03      	lsrs	r3, r0, #8
 800019a:	428b      	cmp	r3, r1
 800019c:	d301      	bcc.n	80001a2 <__udivsi3+0x9a>
 800019e:	020b      	lsls	r3, r1, #8
 80001a0:	1ac0      	subs	r0, r0, r3
 80001a2:	4152      	adcs	r2, r2
 80001a4:	d2cd      	bcs.n	8000142 <__udivsi3+0x3a>
 80001a6:	09c3      	lsrs	r3, r0, #7
 80001a8:	428b      	cmp	r3, r1
 80001aa:	d301      	bcc.n	80001b0 <__udivsi3+0xa8>
 80001ac:	01cb      	lsls	r3, r1, #7
 80001ae:	1ac0      	subs	r0, r0, r3
 80001b0:	4152      	adcs	r2, r2
 80001b2:	0983      	lsrs	r3, r0, #6
 80001b4:	428b      	cmp	r3, r1
 80001b6:	d301      	bcc.n	80001bc <__udivsi3+0xb4>
 80001b8:	018b      	lsls	r3, r1, #6
 80001ba:	1ac0      	subs	r0, r0, r3
 80001bc:	4152      	adcs	r2, r2
 80001be:	0943      	lsrs	r3, r0, #5
 80001c0:	428b      	cmp	r3, r1
 80001c2:	d301      	bcc.n	80001c8 <__udivsi3+0xc0>
 80001c4:	014b      	lsls	r3, r1, #5
 80001c6:	1ac0      	subs	r0, r0, r3
 80001c8:	4152      	adcs	r2, r2
 80001ca:	0903      	lsrs	r3, r0, #4
 80001cc:	428b      	cmp	r3, r1
 80001ce:	d301      	bcc.n	80001d4 <__udivsi3+0xcc>
 80001d0:	010b      	lsls	r3, r1, #4
 80001d2:	1ac0      	subs	r0, r0, r3
 80001d4:	4152      	adcs	r2, r2
 80001d6:	08c3      	lsrs	r3, r0, #3
 80001d8:	428b      	cmp	r3, r1
 80001da:	d301      	bcc.n	80001e0 <__udivsi3+0xd8>
 80001dc:	00cb      	lsls	r3, r1, #3
 80001de:	1ac0      	subs	r0, r0, r3
 80001e0:	4152      	adcs	r2, r2
 80001e2:	0883      	lsrs	r3, r0, #2
 80001e4:	428b      	cmp	r3, r1
 80001e6:	d301      	bcc.n	80001ec <__udivsi3+0xe4>
 80001e8:	008b      	lsls	r3, r1, #2
 80001ea:	1ac0      	subs	r0, r0, r3
 80001ec:	4152      	adcs	r2, r2
 80001ee:	0843      	lsrs	r3, r0, #1
 80001f0:	428b      	cmp	r3, r1
 80001f2:	d301      	bcc.n	80001f8 <__udivsi3+0xf0>
 80001f4:	004b      	lsls	r3, r1, #1
 80001f6:	1ac0      	subs	r0, r0, r3
 80001f8:	4152      	adcs	r2, r2
 80001fa:	1a41      	subs	r1, r0, r1
 80001fc:	d200      	bcs.n	8000200 <__udivsi3+0xf8>
 80001fe:	4601      	mov	r1, r0
 8000200:	4152      	adcs	r2, r2
 8000202:	4610      	mov	r0, r2
 8000204:	4770      	bx	lr
 8000206:	e7ff      	b.n	8000208 <__udivsi3+0x100>
 8000208:	b501      	push	{r0, lr}
 800020a:	2000      	movs	r0, #0
 800020c:	f000 f806 	bl	800021c <__aeabi_idiv0>
 8000210:	bd02      	pop	{r1, pc}
 8000212:	46c0      	nop			; (mov r8, r8)

08000214 <__aeabi_uidivmod>:
 8000214:	2900      	cmp	r1, #0
 8000216:	d0f7      	beq.n	8000208 <__udivsi3+0x100>
 8000218:	e776      	b.n	8000108 <__udivsi3>
 800021a:	4770      	bx	lr

0800021c <__aeabi_idiv0>:
 800021c:	4770      	bx	lr
 800021e:	46c0      	nop			; (mov r8, r8)

08000220 <__aeabi_cdrcmple>:
 8000220:	4684      	mov	ip, r0
 8000222:	1c10      	adds	r0, r2, #0
 8000224:	4662      	mov	r2, ip
 8000226:	468c      	mov	ip, r1
 8000228:	1c19      	adds	r1, r3, #0
 800022a:	4663      	mov	r3, ip
 800022c:	e000      	b.n	8000230 <__aeabi_cdcmpeq>
 800022e:	46c0      	nop			; (mov r8, r8)

08000230 <__aeabi_cdcmpeq>:
 8000230:	b51f      	push	{r0, r1, r2, r3, r4, lr}
 8000232:	f001 fc41 	bl	8001ab8 <__ledf2>
 8000236:	2800      	cmp	r0, #0
 8000238:	d401      	bmi.n	800023e <__aeabi_cdcmpeq+0xe>
 800023a:	2100      	movs	r1, #0
 800023c:	42c8      	cmn	r0, r1
 800023e:	bd1f      	pop	{r0, r1, r2, r3, r4, pc}

08000240 <__aeabi_dcmpeq>:
 8000240:	b510      	push	{r4, lr}
 8000242:	f001 fb9b 	bl	800197c <__eqdf2>
 8000246:	4240      	negs	r0, r0
 8000248:	3001      	adds	r0, #1
 800024a:	bd10      	pop	{r4, pc}

0800024c <__aeabi_dcmplt>:
 800024c:	b510      	push	{r4, lr}
 800024e:	f001 fc33 	bl	8001ab8 <__ledf2>
 8000252:	2800      	cmp	r0, #0
 8000254:	db01      	blt.n	800025a <__aeabi_dcmplt+0xe>
 8000256:	2000      	movs	r0, #0
 8000258:	bd10      	pop	{r4, pc}
 800025a:	2001      	movs	r0, #1
 800025c:	bd10      	pop	{r4, pc}
 800025e:	46c0      	nop			; (mov r8, r8)

08000260 <__aeabi_dcmple>:
 8000260:	b510      	push	{r4, lr}
 8000262:	f001 fc29 	bl	8001ab8 <__ledf2>
 8000266:	2800      	cmp	r0, #0
 8000268:	dd01      	ble.n	800026e <__aeabi_dcmple+0xe>
 800026a:	2000      	movs	r0, #0
 800026c:	bd10      	pop	{r4, pc}
 800026e:	2001      	movs	r0, #1
 8000270:	bd10      	pop	{r4, pc}
 8000272:	46c0      	nop			; (mov r8, r8)

08000274 <__aeabi_dcmpgt>:
 8000274:	b510      	push	{r4, lr}
 8000276:	f001 fbbb 	bl	80019f0 <__gedf2>
 800027a:	2800      	cmp	r0, #0
 800027c:	dc01      	bgt.n	8000282 <__aeabi_dcmpgt+0xe>
 800027e:	2000      	movs	r0, #0
 8000280:	bd10      	pop	{r4, pc}
 8000282:	2001      	movs	r0, #1
 8000284:	bd10      	pop	{r4, pc}
 8000286:	46c0      	nop			; (mov r8, r8)

08000288 <__aeabi_dcmpge>:
 8000288:	b510      	push	{r4, lr}
 800028a:	f001 fbb1 	bl	80019f0 <__gedf2>
 800028e:	2800      	cmp	r0, #0
 8000290:	da01      	bge.n	8000296 <__aeabi_dcmpge+0xe>
 8000292:	2000      	movs	r0, #0
 8000294:	bd10      	pop	{r4, pc}
 8000296:	2001      	movs	r0, #1
 8000298:	bd10      	pop	{r4, pc}
 800029a:	46c0      	nop			; (mov r8, r8)

0800029c <__aeabi_cfrcmple>:
 800029c:	4684      	mov	ip, r0
 800029e:	1c08      	adds	r0, r1, #0
 80002a0:	4661      	mov	r1, ip
 80002a2:	e7ff      	b.n	80002a4 <__aeabi_cfcmpeq>

080002a4 <__aeabi_cfcmpeq>:
 80002a4:	b51f      	push	{r0, r1, r2, r3, r4, lr}
 80002a6:	f000 fb73 	bl	8000990 <__lesf2>
 80002aa:	2800      	cmp	r0, #0
 80002ac:	d401      	bmi.n	80002b2 <__aeabi_cfcmpeq+0xe>
 80002ae:	2100      	movs	r1, #0
 80002b0:	42c8      	cmn	r0, r1
 80002b2:	bd1f      	pop	{r0, r1, r2, r3, r4, pc}

080002b4 <__aeabi_fcmpeq>:
 80002b4:	b510      	push	{r4, lr}
 80002b6:	f000 fb05 	bl	80008c4 <__eqsf2>
 80002ba:	4240      	negs	r0, r0
 80002bc:	3001      	adds	r0, #1
 80002be:	bd10      	pop	{r4, pc}

080002c0 <__aeabi_fcmplt>:
 80002c0:	b510      	push	{r4, lr}
 80002c2:	f000 fb65 	bl	8000990 <__lesf2>
 80002c6:	2800      	cmp	r0, #0
 80002c8:	db01      	blt.n	80002ce <__aeabi_fcmplt+0xe>
 80002ca:	2000      	movs	r0, #0
 80002cc:	bd10      	pop	{r4, pc}
 80002ce:	2001      	movs	r0, #1
 80002d0:	bd10      	pop	{r4, pc}
 80002d2:	46c0      	nop			; (mov r8, r8)

080002d4 <__aeabi_fcmple>:
 80002d4:	b510      	push	{r4, lr}
 80002d6:	f000 fb5b 	bl	8000990 <__lesf2>
 80002da:	2800      	cmp	r0, #0
 80002dc:	dd01      	ble.n	80002e2 <__aeabi_fcmple+0xe>
 80002de:	2000      	movs	r0, #0
 80002e0:	bd10      	pop	{r4, pc}
 80002e2:	2001      	movs	r0, #1
 80002e4:	bd10      	pop	{r4, pc}
 80002e6:	46c0      	nop			; (mov r8, r8)

080002e8 <__aeabi_fcmpgt>:
 80002e8:	b510      	push	{r4, lr}
 80002ea:	f000 fb11 	bl	8000910 <__gesf2>
 80002ee:	2800      	cmp	r0, #0
 80002f0:	dc01      	bgt.n	80002f6 <__aeabi_fcmpgt+0xe>
 80002f2:	2000      	movs	r0, #0
 80002f4:	bd10      	pop	{r4, pc}
 80002f6:	2001      	movs	r0, #1
 80002f8:	bd10      	pop	{r4, pc}
 80002fa:	46c0      	nop			; (mov r8, r8)

080002fc <__aeabi_fcmpge>:
 80002fc:	b510      	push	{r4, lr}
 80002fe:	f000 fb07 	bl	8000910 <__gesf2>
 8000302:	2800      	cmp	r0, #0
 8000304:	da01      	bge.n	800030a <__aeabi_fcmpge+0xe>
 8000306:	2000      	movs	r0, #0
 8000308:	bd10      	pop	{r4, pc}
 800030a:	2001      	movs	r0, #1
 800030c:	bd10      	pop	{r4, pc}
 800030e:	46c0      	nop			; (mov r8, r8)

08000310 <__aeabi_fadd>:
 8000310:	b5f0      	push	{r4, r5, r6, r7, lr}
 8000312:	46c6      	mov	lr, r8
 8000314:	024e      	lsls	r6, r1, #9
 8000316:	0247      	lsls	r7, r0, #9
 8000318:	0a76      	lsrs	r6, r6, #9
 800031a:	0a7b      	lsrs	r3, r7, #9
 800031c:	0044      	lsls	r4, r0, #1
 800031e:	0fc5      	lsrs	r5, r0, #31
 8000320:	00f7      	lsls	r7, r6, #3
 8000322:	0048      	lsls	r0, r1, #1
 8000324:	4698      	mov	r8, r3
 8000326:	b500      	push	{lr}
 8000328:	0e24      	lsrs	r4, r4, #24
 800032a:	002a      	movs	r2, r5
 800032c:	00db      	lsls	r3, r3, #3
 800032e:	0e00      	lsrs	r0, r0, #24
 8000330:	0fc9      	lsrs	r1, r1, #31
 8000332:	46bc      	mov	ip, r7
 8000334:	428d      	cmp	r5, r1
 8000336:	d067      	beq.n	8000408 <__aeabi_fadd+0xf8>
 8000338:	1a22      	subs	r2, r4, r0
 800033a:	2a00      	cmp	r2, #0
 800033c:	dc00      	bgt.n	8000340 <__aeabi_fadd+0x30>
 800033e:	e0a5      	b.n	800048c <__aeabi_fadd+0x17c>
 8000340:	2800      	cmp	r0, #0
 8000342:	d13a      	bne.n	80003ba <__aeabi_fadd+0xaa>
 8000344:	2f00      	cmp	r7, #0
 8000346:	d100      	bne.n	800034a <__aeabi_fadd+0x3a>
 8000348:	e093      	b.n	8000472 <__aeabi_fadd+0x162>
 800034a:	1e51      	subs	r1, r2, #1
 800034c:	2900      	cmp	r1, #0
 800034e:	d000      	beq.n	8000352 <__aeabi_fadd+0x42>
 8000350:	e0bc      	b.n	80004cc <__aeabi_fadd+0x1bc>
 8000352:	2401      	movs	r4, #1
 8000354:	1bdb      	subs	r3, r3, r7
 8000356:	015a      	lsls	r2, r3, #5
 8000358:	d546      	bpl.n	80003e8 <__aeabi_fadd+0xd8>
 800035a:	019b      	lsls	r3, r3, #6
 800035c:	099e      	lsrs	r6, r3, #6
 800035e:	0030      	movs	r0, r6
 8000360:	f002 fa7e 	bl	8002860 <__clzsi2>
 8000364:	3805      	subs	r0, #5
 8000366:	4086      	lsls	r6, r0
 8000368:	4284      	cmp	r4, r0
 800036a:	dd00      	ble.n	800036e <__aeabi_fadd+0x5e>
 800036c:	e09d      	b.n	80004aa <__aeabi_fadd+0x19a>
 800036e:	1b04      	subs	r4, r0, r4
 8000370:	0032      	movs	r2, r6
 8000372:	2020      	movs	r0, #32
 8000374:	3401      	adds	r4, #1
 8000376:	40e2      	lsrs	r2, r4
 8000378:	1b04      	subs	r4, r0, r4
 800037a:	40a6      	lsls	r6, r4
 800037c:	0033      	movs	r3, r6
 800037e:	1e5e      	subs	r6, r3, #1
 8000380:	41b3      	sbcs	r3, r6
 8000382:	2400      	movs	r4, #0
 8000384:	4313      	orrs	r3, r2
 8000386:	075a      	lsls	r2, r3, #29
 8000388:	d004      	beq.n	8000394 <__aeabi_fadd+0x84>
 800038a:	220f      	movs	r2, #15
 800038c:	401a      	ands	r2, r3
 800038e:	2a04      	cmp	r2, #4
 8000390:	d000      	beq.n	8000394 <__aeabi_fadd+0x84>
 8000392:	3304      	adds	r3, #4
 8000394:	015a      	lsls	r2, r3, #5
 8000396:	d529      	bpl.n	80003ec <__aeabi_fadd+0xdc>
 8000398:	3401      	adds	r4, #1
 800039a:	2cff      	cmp	r4, #255	; 0xff
 800039c:	d100      	bne.n	80003a0 <__aeabi_fadd+0x90>
 800039e:	e081      	b.n	80004a4 <__aeabi_fadd+0x194>
 80003a0:	002a      	movs	r2, r5
 80003a2:	019b      	lsls	r3, r3, #6
 80003a4:	0a5b      	lsrs	r3, r3, #9
 80003a6:	b2e4      	uxtb	r4, r4
 80003a8:	025b      	lsls	r3, r3, #9
 80003aa:	05e4      	lsls	r4, r4, #23
 80003ac:	0a58      	lsrs	r0, r3, #9
 80003ae:	07d2      	lsls	r2, r2, #31
 80003b0:	4320      	orrs	r0, r4
 80003b2:	4310      	orrs	r0, r2
 80003b4:	bc04      	pop	{r2}
 80003b6:	4690      	mov	r8, r2
 80003b8:	bdf0      	pop	{r4, r5, r6, r7, pc}
 80003ba:	2cff      	cmp	r4, #255	; 0xff
 80003bc:	d0e3      	beq.n	8000386 <__aeabi_fadd+0x76>
 80003be:	2180      	movs	r1, #128	; 0x80
 80003c0:	0038      	movs	r0, r7
 80003c2:	04c9      	lsls	r1, r1, #19
 80003c4:	4308      	orrs	r0, r1
 80003c6:	4684      	mov	ip, r0
 80003c8:	2a1b      	cmp	r2, #27
 80003ca:	dd00      	ble.n	80003ce <__aeabi_fadd+0xbe>
 80003cc:	e082      	b.n	80004d4 <__aeabi_fadd+0x1c4>
 80003ce:	2020      	movs	r0, #32
 80003d0:	4661      	mov	r1, ip
 80003d2:	40d1      	lsrs	r1, r2
 80003d4:	1a82      	subs	r2, r0, r2
 80003d6:	4660      	mov	r0, ip
 80003d8:	4090      	lsls	r0, r2
 80003da:	0002      	movs	r2, r0
 80003dc:	1e50      	subs	r0, r2, #1
 80003de:	4182      	sbcs	r2, r0
 80003e0:	430a      	orrs	r2, r1
 80003e2:	1a9b      	subs	r3, r3, r2
 80003e4:	015a      	lsls	r2, r3, #5
 80003e6:	d4b8      	bmi.n	800035a <__aeabi_fadd+0x4a>
 80003e8:	075a      	lsls	r2, r3, #29
 80003ea:	d1ce      	bne.n	800038a <__aeabi_fadd+0x7a>
 80003ec:	08de      	lsrs	r6, r3, #3
 80003ee:	002a      	movs	r2, r5
 80003f0:	2cff      	cmp	r4, #255	; 0xff
 80003f2:	d13a      	bne.n	800046a <__aeabi_fadd+0x15a>
 80003f4:	2e00      	cmp	r6, #0
 80003f6:	d100      	bne.n	80003fa <__aeabi_fadd+0xea>
 80003f8:	e0ae      	b.n	8000558 <__aeabi_fadd+0x248>
 80003fa:	2380      	movs	r3, #128	; 0x80
 80003fc:	03db      	lsls	r3, r3, #15
 80003fe:	4333      	orrs	r3, r6
 8000400:	025b      	lsls	r3, r3, #9
 8000402:	0a5b      	lsrs	r3, r3, #9
 8000404:	24ff      	movs	r4, #255	; 0xff
 8000406:	e7cf      	b.n	80003a8 <__aeabi_fadd+0x98>
 8000408:	1a21      	subs	r1, r4, r0
 800040a:	2900      	cmp	r1, #0
 800040c:	dd52      	ble.n	80004b4 <__aeabi_fadd+0x1a4>
 800040e:	2800      	cmp	r0, #0
 8000410:	d031      	beq.n	8000476 <__aeabi_fadd+0x166>
 8000412:	2cff      	cmp	r4, #255	; 0xff
 8000414:	d0b7      	beq.n	8000386 <__aeabi_fadd+0x76>
 8000416:	2080      	movs	r0, #128	; 0x80
 8000418:	003e      	movs	r6, r7
 800041a:	04c0      	lsls	r0, r0, #19
 800041c:	4306      	orrs	r6, r0
 800041e:	46b4      	mov	ip, r6
 8000420:	291b      	cmp	r1, #27
 8000422:	dd00      	ble.n	8000426 <__aeabi_fadd+0x116>
 8000424:	e0aa      	b.n	800057c <__aeabi_fadd+0x26c>
 8000426:	2620      	movs	r6, #32
 8000428:	4660      	mov	r0, ip
 800042a:	40c8      	lsrs	r0, r1
 800042c:	1a71      	subs	r1, r6, r1
 800042e:	4666      	mov	r6, ip
 8000430:	408e      	lsls	r6, r1
 8000432:	0031      	movs	r1, r6
 8000434:	1e4e      	subs	r6, r1, #1
 8000436:	41b1      	sbcs	r1, r6
 8000438:	4301      	orrs	r1, r0
 800043a:	185b      	adds	r3, r3, r1
 800043c:	0159      	lsls	r1, r3, #5
 800043e:	d5d3      	bpl.n	80003e8 <__aeabi_fadd+0xd8>
 8000440:	3401      	adds	r4, #1
 8000442:	2cff      	cmp	r4, #255	; 0xff
 8000444:	d100      	bne.n	8000448 <__aeabi_fadd+0x138>
 8000446:	e087      	b.n	8000558 <__aeabi_fadd+0x248>
 8000448:	2201      	movs	r2, #1
 800044a:	4978      	ldr	r1, [pc, #480]	; (800062c <__aeabi_fadd+0x31c>)
 800044c:	401a      	ands	r2, r3
 800044e:	085b      	lsrs	r3, r3, #1
 8000450:	400b      	ands	r3, r1
 8000452:	4313      	orrs	r3, r2
 8000454:	e797      	b.n	8000386 <__aeabi_fadd+0x76>
 8000456:	2c00      	cmp	r4, #0
 8000458:	d000      	beq.n	800045c <__aeabi_fadd+0x14c>
 800045a:	e0a7      	b.n	80005ac <__aeabi_fadd+0x29c>
 800045c:	2b00      	cmp	r3, #0
 800045e:	d000      	beq.n	8000462 <__aeabi_fadd+0x152>
 8000460:	e0b6      	b.n	80005d0 <__aeabi_fadd+0x2c0>
 8000462:	1e3b      	subs	r3, r7, #0
 8000464:	d162      	bne.n	800052c <__aeabi_fadd+0x21c>
 8000466:	2600      	movs	r6, #0
 8000468:	2200      	movs	r2, #0
 800046a:	0273      	lsls	r3, r6, #9
 800046c:	0a5b      	lsrs	r3, r3, #9
 800046e:	b2e4      	uxtb	r4, r4
 8000470:	e79a      	b.n	80003a8 <__aeabi_fadd+0x98>
 8000472:	0014      	movs	r4, r2
 8000474:	e787      	b.n	8000386 <__aeabi_fadd+0x76>
 8000476:	2f00      	cmp	r7, #0
 8000478:	d04d      	beq.n	8000516 <__aeabi_fadd+0x206>
 800047a:	1e48      	subs	r0, r1, #1
 800047c:	2800      	cmp	r0, #0
 800047e:	d157      	bne.n	8000530 <__aeabi_fadd+0x220>
 8000480:	4463      	add	r3, ip
 8000482:	2401      	movs	r4, #1
 8000484:	015a      	lsls	r2, r3, #5
 8000486:	d5af      	bpl.n	80003e8 <__aeabi_fadd+0xd8>
 8000488:	2402      	movs	r4, #2
 800048a:	e7dd      	b.n	8000448 <__aeabi_fadd+0x138>
 800048c:	2a00      	cmp	r2, #0
 800048e:	d124      	bne.n	80004da <__aeabi_fadd+0x1ca>
 8000490:	1c62      	adds	r2, r4, #1
 8000492:	b2d2      	uxtb	r2, r2
 8000494:	2a01      	cmp	r2, #1
 8000496:	ddde      	ble.n	8000456 <__aeabi_fadd+0x146>
 8000498:	1bde      	subs	r6, r3, r7
 800049a:	0172      	lsls	r2, r6, #5
 800049c:	d535      	bpl.n	800050a <__aeabi_fadd+0x1fa>
 800049e:	1afe      	subs	r6, r7, r3
 80004a0:	000d      	movs	r5, r1
 80004a2:	e75c      	b.n	800035e <__aeabi_fadd+0x4e>
 80004a4:	002a      	movs	r2, r5
 80004a6:	2300      	movs	r3, #0
 80004a8:	e77e      	b.n	80003a8 <__aeabi_fadd+0x98>
 80004aa:	0033      	movs	r3, r6
 80004ac:	4a60      	ldr	r2, [pc, #384]	; (8000630 <__aeabi_fadd+0x320>)
 80004ae:	1a24      	subs	r4, r4, r0
 80004b0:	4013      	ands	r3, r2
 80004b2:	e768      	b.n	8000386 <__aeabi_fadd+0x76>
 80004b4:	2900      	cmp	r1, #0
 80004b6:	d163      	bne.n	8000580 <__aeabi_fadd+0x270>
 80004b8:	1c61      	adds	r1, r4, #1
 80004ba:	b2c8      	uxtb	r0, r1
 80004bc:	2801      	cmp	r0, #1
 80004be:	dd4e      	ble.n	800055e <__aeabi_fadd+0x24e>
 80004c0:	29ff      	cmp	r1, #255	; 0xff
 80004c2:	d049      	beq.n	8000558 <__aeabi_fadd+0x248>
 80004c4:	4463      	add	r3, ip
 80004c6:	085b      	lsrs	r3, r3, #1
 80004c8:	000c      	movs	r4, r1
 80004ca:	e75c      	b.n	8000386 <__aeabi_fadd+0x76>
 80004cc:	2aff      	cmp	r2, #255	; 0xff
 80004ce:	d041      	beq.n	8000554 <__aeabi_fadd+0x244>
 80004d0:	000a      	movs	r2, r1
 80004d2:	e779      	b.n	80003c8 <__aeabi_fadd+0xb8>
 80004d4:	2201      	movs	r2, #1
 80004d6:	1a9b      	subs	r3, r3, r2
 80004d8:	e784      	b.n	80003e4 <__aeabi_fadd+0xd4>
 80004da:	2c00      	cmp	r4, #0
 80004dc:	d01d      	beq.n	800051a <__aeabi_fadd+0x20a>
 80004de:	28ff      	cmp	r0, #255	; 0xff
 80004e0:	d022      	beq.n	8000528 <__aeabi_fadd+0x218>
 80004e2:	2480      	movs	r4, #128	; 0x80
 80004e4:	04e4      	lsls	r4, r4, #19
 80004e6:	4252      	negs	r2, r2
 80004e8:	4323      	orrs	r3, r4
 80004ea:	2a1b      	cmp	r2, #27
 80004ec:	dd00      	ble.n	80004f0 <__aeabi_fadd+0x1e0>
 80004ee:	e08a      	b.n	8000606 <__aeabi_fadd+0x2f6>
 80004f0:	001c      	movs	r4, r3
 80004f2:	2520      	movs	r5, #32
 80004f4:	40d4      	lsrs	r4, r2
 80004f6:	1aaa      	subs	r2, r5, r2
 80004f8:	4093      	lsls	r3, r2
 80004fa:	1e5a      	subs	r2, r3, #1
 80004fc:	4193      	sbcs	r3, r2
 80004fe:	4323      	orrs	r3, r4
 8000500:	4662      	mov	r2, ip
 8000502:	0004      	movs	r4, r0
 8000504:	1ad3      	subs	r3, r2, r3
 8000506:	000d      	movs	r5, r1
 8000508:	e725      	b.n	8000356 <__aeabi_fadd+0x46>
 800050a:	2e00      	cmp	r6, #0
 800050c:	d000      	beq.n	8000510 <__aeabi_fadd+0x200>
 800050e:	e726      	b.n	800035e <__aeabi_fadd+0x4e>
 8000510:	2200      	movs	r2, #0
 8000512:	2400      	movs	r4, #0
 8000514:	e7a9      	b.n	800046a <__aeabi_fadd+0x15a>
 8000516:	000c      	movs	r4, r1
 8000518:	e735      	b.n	8000386 <__aeabi_fadd+0x76>
 800051a:	2b00      	cmp	r3, #0
 800051c:	d04d      	beq.n	80005ba <__aeabi_fadd+0x2aa>
 800051e:	43d2      	mvns	r2, r2
 8000520:	2a00      	cmp	r2, #0
 8000522:	d0ed      	beq.n	8000500 <__aeabi_fadd+0x1f0>
 8000524:	28ff      	cmp	r0, #255	; 0xff
 8000526:	d1e0      	bne.n	80004ea <__aeabi_fadd+0x1da>
 8000528:	4663      	mov	r3, ip
 800052a:	24ff      	movs	r4, #255	; 0xff
 800052c:	000d      	movs	r5, r1
 800052e:	e72a      	b.n	8000386 <__aeabi_fadd+0x76>
 8000530:	29ff      	cmp	r1, #255	; 0xff
 8000532:	d00f      	beq.n	8000554 <__aeabi_fadd+0x244>
 8000534:	0001      	movs	r1, r0
 8000536:	e773      	b.n	8000420 <__aeabi_fadd+0x110>
 8000538:	2b00      	cmp	r3, #0
 800053a:	d061      	beq.n	8000600 <__aeabi_fadd+0x2f0>
 800053c:	24ff      	movs	r4, #255	; 0xff
 800053e:	2f00      	cmp	r7, #0
 8000540:	d100      	bne.n	8000544 <__aeabi_fadd+0x234>
 8000542:	e720      	b.n	8000386 <__aeabi_fadd+0x76>
 8000544:	2280      	movs	r2, #128	; 0x80
 8000546:	4641      	mov	r1, r8
 8000548:	03d2      	lsls	r2, r2, #15
 800054a:	4211      	tst	r1, r2
 800054c:	d002      	beq.n	8000554 <__aeabi_fadd+0x244>
 800054e:	4216      	tst	r6, r2
 8000550:	d100      	bne.n	8000554 <__aeabi_fadd+0x244>
 8000552:	003b      	movs	r3, r7
 8000554:	24ff      	movs	r4, #255	; 0xff
 8000556:	e716      	b.n	8000386 <__aeabi_fadd+0x76>
 8000558:	24ff      	movs	r4, #255	; 0xff
 800055a:	2300      	movs	r3, #0
 800055c:	e724      	b.n	80003a8 <__aeabi_fadd+0x98>
 800055e:	2c00      	cmp	r4, #0
 8000560:	d1ea      	bne.n	8000538 <__aeabi_fadd+0x228>
 8000562:	2b00      	cmp	r3, #0
 8000564:	d058      	beq.n	8000618 <__aeabi_fadd+0x308>
 8000566:	2f00      	cmp	r7, #0
 8000568:	d100      	bne.n	800056c <__aeabi_fadd+0x25c>
 800056a:	e70c      	b.n	8000386 <__aeabi_fadd+0x76>
 800056c:	4463      	add	r3, ip
 800056e:	015a      	lsls	r2, r3, #5
 8000570:	d400      	bmi.n	8000574 <__aeabi_fadd+0x264>
 8000572:	e739      	b.n	80003e8 <__aeabi_fadd+0xd8>
 8000574:	4a2e      	ldr	r2, [pc, #184]	; (8000630 <__aeabi_fadd+0x320>)
 8000576:	000c      	movs	r4, r1
 8000578:	4013      	ands	r3, r2
 800057a:	e704      	b.n	8000386 <__aeabi_fadd+0x76>
 800057c:	2101      	movs	r1, #1
 800057e:	e75c      	b.n	800043a <__aeabi_fadd+0x12a>
 8000580:	2c00      	cmp	r4, #0
 8000582:	d11e      	bne.n	80005c2 <__aeabi_fadd+0x2b2>
 8000584:	2b00      	cmp	r3, #0
 8000586:	d040      	beq.n	800060a <__aeabi_fadd+0x2fa>
 8000588:	43c9      	mvns	r1, r1
 800058a:	2900      	cmp	r1, #0
 800058c:	d00b      	beq.n	80005a6 <__aeabi_fadd+0x296>
 800058e:	28ff      	cmp	r0, #255	; 0xff
 8000590:	d036      	beq.n	8000600 <__aeabi_fadd+0x2f0>
 8000592:	291b      	cmp	r1, #27
 8000594:	dc47      	bgt.n	8000626 <__aeabi_fadd+0x316>
 8000596:	001c      	movs	r4, r3
 8000598:	2620      	movs	r6, #32
 800059a:	40cc      	lsrs	r4, r1
 800059c:	1a71      	subs	r1, r6, r1
 800059e:	408b      	lsls	r3, r1
 80005a0:	1e59      	subs	r1, r3, #1
 80005a2:	418b      	sbcs	r3, r1
 80005a4:	4323      	orrs	r3, r4
 80005a6:	4463      	add	r3, ip
 80005a8:	0004      	movs	r4, r0
 80005aa:	e747      	b.n	800043c <__aeabi_fadd+0x12c>
 80005ac:	2b00      	cmp	r3, #0
 80005ae:	d118      	bne.n	80005e2 <__aeabi_fadd+0x2d2>
 80005b0:	1e3b      	subs	r3, r7, #0
 80005b2:	d02d      	beq.n	8000610 <__aeabi_fadd+0x300>
 80005b4:	000d      	movs	r5, r1
 80005b6:	24ff      	movs	r4, #255	; 0xff
 80005b8:	e6e5      	b.n	8000386 <__aeabi_fadd+0x76>
 80005ba:	003b      	movs	r3, r7
 80005bc:	0004      	movs	r4, r0
 80005be:	000d      	movs	r5, r1
 80005c0:	e6e1      	b.n	8000386 <__aeabi_fadd+0x76>
 80005c2:	28ff      	cmp	r0, #255	; 0xff
 80005c4:	d01c      	beq.n	8000600 <__aeabi_fadd+0x2f0>
 80005c6:	2480      	movs	r4, #128	; 0x80
 80005c8:	04e4      	lsls	r4, r4, #19
 80005ca:	4249      	negs	r1, r1
 80005cc:	4323      	orrs	r3, r4
 80005ce:	e7e0      	b.n	8000592 <__aeabi_fadd+0x282>
 80005d0:	2f00      	cmp	r7, #0
 80005d2:	d100      	bne.n	80005d6 <__aeabi_fadd+0x2c6>
 80005d4:	e6d7      	b.n	8000386 <__aeabi_fadd+0x76>
 80005d6:	1bde      	subs	r6, r3, r7
 80005d8:	0172      	lsls	r2, r6, #5
 80005da:	d51f      	bpl.n	800061c <__aeabi_fadd+0x30c>
 80005dc:	1afb      	subs	r3, r7, r3
 80005de:	000d      	movs	r5, r1
 80005e0:	e6d1      	b.n	8000386 <__aeabi_fadd+0x76>
 80005e2:	24ff      	movs	r4, #255	; 0xff
 80005e4:	2f00      	cmp	r7, #0
 80005e6:	d100      	bne.n	80005ea <__aeabi_fadd+0x2da>
 80005e8:	e6cd      	b.n	8000386 <__aeabi_fadd+0x76>
 80005ea:	2280      	movs	r2, #128	; 0x80
 80005ec:	4640      	mov	r0, r8
 80005ee:	03d2      	lsls	r2, r2, #15
 80005f0:	4210      	tst	r0, r2
 80005f2:	d0af      	beq.n	8000554 <__aeabi_fadd+0x244>
 80005f4:	4216      	tst	r6, r2
 80005f6:	d1ad      	bne.n	8000554 <__aeabi_fadd+0x244>
 80005f8:	003b      	movs	r3, r7
 80005fa:	000d      	movs	r5, r1
 80005fc:	24ff      	movs	r4, #255	; 0xff
 80005fe:	e6c2      	b.n	8000386 <__aeabi_fadd+0x76>
 8000600:	4663      	mov	r3, ip
 8000602:	24ff      	movs	r4, #255	; 0xff
 8000604:	e6bf      	b.n	8000386 <__aeabi_fadd+0x76>
 8000606:	2301      	movs	r3, #1
 8000608:	e77a      	b.n	8000500 <__aeabi_fadd+0x1f0>
 800060a:	003b      	movs	r3, r7
 800060c:	0004      	movs	r4, r0
 800060e:	e6ba      	b.n	8000386 <__aeabi_fadd+0x76>
 8000610:	2680      	movs	r6, #128	; 0x80
 8000612:	2200      	movs	r2, #0
 8000614:	03f6      	lsls	r6, r6, #15
 8000616:	e6f0      	b.n	80003fa <__aeabi_fadd+0xea>
 8000618:	003b      	movs	r3, r7
 800061a:	e6b4      	b.n	8000386 <__aeabi_fadd+0x76>
 800061c:	1e33      	subs	r3, r6, #0
 800061e:	d000      	beq.n	8000622 <__aeabi_fadd+0x312>
 8000620:	e6e2      	b.n	80003e8 <__aeabi_fadd+0xd8>
 8000622:	2200      	movs	r2, #0
 8000624:	e721      	b.n	800046a <__aeabi_fadd+0x15a>
 8000626:	2301      	movs	r3, #1
 8000628:	e7bd      	b.n	80005a6 <__aeabi_fadd+0x296>
 800062a:	46c0      	nop			; (mov r8, r8)
 800062c:	7dffffff 	.word	0x7dffffff
 8000630:	fbffffff 	.word	0xfbffffff

08000634 <__aeabi_fdiv>:
 8000634:	b5f0      	push	{r4, r5, r6, r7, lr}
 8000636:	4657      	mov	r7, sl
 8000638:	464e      	mov	r6, r9
 800063a:	46de      	mov	lr, fp
 800063c:	4645      	mov	r5, r8
 800063e:	b5e0      	push	{r5, r6, r7, lr}
 8000640:	0244      	lsls	r4, r0, #9
 8000642:	0043      	lsls	r3, r0, #1
 8000644:	0fc6      	lsrs	r6, r0, #31
 8000646:	b083      	sub	sp, #12
 8000648:	1c0f      	adds	r7, r1, #0
 800064a:	0a64      	lsrs	r4, r4, #9
 800064c:	0e1b      	lsrs	r3, r3, #24
 800064e:	46b2      	mov	sl, r6
 8000650:	d053      	beq.n	80006fa <__aeabi_fdiv+0xc6>
 8000652:	2bff      	cmp	r3, #255	; 0xff
 8000654:	d027      	beq.n	80006a6 <__aeabi_fdiv+0x72>
 8000656:	2280      	movs	r2, #128	; 0x80
 8000658:	00e4      	lsls	r4, r4, #3
 800065a:	04d2      	lsls	r2, r2, #19
 800065c:	4314      	orrs	r4, r2
 800065e:	227f      	movs	r2, #127	; 0x7f
 8000660:	4252      	negs	r2, r2
 8000662:	4690      	mov	r8, r2
 8000664:	4498      	add	r8, r3
 8000666:	2300      	movs	r3, #0
 8000668:	4699      	mov	r9, r3
 800066a:	469b      	mov	fp, r3
 800066c:	027d      	lsls	r5, r7, #9
 800066e:	0078      	lsls	r0, r7, #1
 8000670:	0ffb      	lsrs	r3, r7, #31
 8000672:	0a6d      	lsrs	r5, r5, #9
 8000674:	0e00      	lsrs	r0, r0, #24
 8000676:	9300      	str	r3, [sp, #0]
 8000678:	d024      	beq.n	80006c4 <__aeabi_fdiv+0x90>
 800067a:	28ff      	cmp	r0, #255	; 0xff
 800067c:	d046      	beq.n	800070c <__aeabi_fdiv+0xd8>
 800067e:	2380      	movs	r3, #128	; 0x80
 8000680:	2100      	movs	r1, #0
 8000682:	00ed      	lsls	r5, r5, #3
 8000684:	04db      	lsls	r3, r3, #19
 8000686:	431d      	orrs	r5, r3
 8000688:	387f      	subs	r0, #127	; 0x7f
 800068a:	4647      	mov	r7, r8
 800068c:	1a38      	subs	r0, r7, r0
 800068e:	464f      	mov	r7, r9
 8000690:	430f      	orrs	r7, r1
 8000692:	00bf      	lsls	r7, r7, #2
 8000694:	46b9      	mov	r9, r7
 8000696:	0033      	movs	r3, r6
 8000698:	9a00      	ldr	r2, [sp, #0]
 800069a:	4f87      	ldr	r7, [pc, #540]	; (80008b8 <__aeabi_fdiv+0x284>)
 800069c:	4053      	eors	r3, r2
 800069e:	464a      	mov	r2, r9
 80006a0:	58ba      	ldr	r2, [r7, r2]
 80006a2:	9301      	str	r3, [sp, #4]
 80006a4:	4697      	mov	pc, r2
 80006a6:	2c00      	cmp	r4, #0
 80006a8:	d14e      	bne.n	8000748 <__aeabi_fdiv+0x114>
 80006aa:	2308      	movs	r3, #8
 80006ac:	4699      	mov	r9, r3
 80006ae:	33f7      	adds	r3, #247	; 0xf7
 80006b0:	4698      	mov	r8, r3
 80006b2:	3bfd      	subs	r3, #253	; 0xfd
 80006b4:	469b      	mov	fp, r3
 80006b6:	027d      	lsls	r5, r7, #9
 80006b8:	0078      	lsls	r0, r7, #1
 80006ba:	0ffb      	lsrs	r3, r7, #31
 80006bc:	0a6d      	lsrs	r5, r5, #9
 80006be:	0e00      	lsrs	r0, r0, #24
 80006c0:	9300      	str	r3, [sp, #0]
 80006c2:	d1da      	bne.n	800067a <__aeabi_fdiv+0x46>
 80006c4:	2d00      	cmp	r5, #0
 80006c6:	d126      	bne.n	8000716 <__aeabi_fdiv+0xe2>
 80006c8:	2000      	movs	r0, #0
 80006ca:	2101      	movs	r1, #1
 80006cc:	0033      	movs	r3, r6
 80006ce:	9a00      	ldr	r2, [sp, #0]
 80006d0:	4f7a      	ldr	r7, [pc, #488]	; (80008bc <__aeabi_fdiv+0x288>)
 80006d2:	4053      	eors	r3, r2
 80006d4:	4642      	mov	r2, r8
 80006d6:	1a10      	subs	r0, r2, r0
 80006d8:	464a      	mov	r2, r9
 80006da:	430a      	orrs	r2, r1
 80006dc:	0092      	lsls	r2, r2, #2
 80006de:	58ba      	ldr	r2, [r7, r2]
 80006e0:	001d      	movs	r5, r3
 80006e2:	4697      	mov	pc, r2
 80006e4:	9b00      	ldr	r3, [sp, #0]
 80006e6:	002c      	movs	r4, r5
 80006e8:	469a      	mov	sl, r3
 80006ea:	468b      	mov	fp, r1
 80006ec:	465b      	mov	r3, fp
 80006ee:	2b02      	cmp	r3, #2
 80006f0:	d131      	bne.n	8000756 <__aeabi_fdiv+0x122>
 80006f2:	4653      	mov	r3, sl
 80006f4:	21ff      	movs	r1, #255	; 0xff
 80006f6:	2400      	movs	r4, #0
 80006f8:	e038      	b.n	800076c <__aeabi_fdiv+0x138>
 80006fa:	2c00      	cmp	r4, #0
 80006fc:	d117      	bne.n	800072e <__aeabi_fdiv+0xfa>
 80006fe:	2304      	movs	r3, #4
 8000700:	4699      	mov	r9, r3
 8000702:	2300      	movs	r3, #0
 8000704:	4698      	mov	r8, r3
 8000706:	3301      	adds	r3, #1
 8000708:	469b      	mov	fp, r3
 800070a:	e7af      	b.n	800066c <__aeabi_fdiv+0x38>
 800070c:	20ff      	movs	r0, #255	; 0xff
 800070e:	2d00      	cmp	r5, #0
 8000710:	d10b      	bne.n	800072a <__aeabi_fdiv+0xf6>
 8000712:	2102      	movs	r1, #2
 8000714:	e7da      	b.n	80006cc <__aeabi_fdiv+0x98>
 8000716:	0028      	movs	r0, r5
 8000718:	f002 f8a2 	bl	8002860 <__clzsi2>
 800071c:	1f43      	subs	r3, r0, #5
 800071e:	409d      	lsls	r5, r3
 8000720:	2376      	movs	r3, #118	; 0x76
 8000722:	425b      	negs	r3, r3
 8000724:	1a18      	subs	r0, r3, r0
 8000726:	2100      	movs	r1, #0
 8000728:	e7af      	b.n	800068a <__aeabi_fdiv+0x56>
 800072a:	2103      	movs	r1, #3
 800072c:	e7ad      	b.n	800068a <__aeabi_fdiv+0x56>
 800072e:	0020      	movs	r0, r4
 8000730:	f002 f896 	bl	8002860 <__clzsi2>
 8000734:	1f43      	subs	r3, r0, #5
 8000736:	409c      	lsls	r4, r3
 8000738:	2376      	movs	r3, #118	; 0x76
 800073a:	425b      	negs	r3, r3
 800073c:	1a1b      	subs	r3, r3, r0
 800073e:	4698      	mov	r8, r3
 8000740:	2300      	movs	r3, #0
 8000742:	4699      	mov	r9, r3
 8000744:	469b      	mov	fp, r3
 8000746:	e791      	b.n	800066c <__aeabi_fdiv+0x38>
 8000748:	230c      	movs	r3, #12
 800074a:	4699      	mov	r9, r3
 800074c:	33f3      	adds	r3, #243	; 0xf3
 800074e:	4698      	mov	r8, r3
 8000750:	3bfc      	subs	r3, #252	; 0xfc
 8000752:	469b      	mov	fp, r3
 8000754:	e78a      	b.n	800066c <__aeabi_fdiv+0x38>
 8000756:	2b03      	cmp	r3, #3
 8000758:	d100      	bne.n	800075c <__aeabi_fdiv+0x128>
 800075a:	e0a5      	b.n	80008a8 <__aeabi_fdiv+0x274>
 800075c:	4655      	mov	r5, sl
 800075e:	2b01      	cmp	r3, #1
 8000760:	d000      	beq.n	8000764 <__aeabi_fdiv+0x130>
 8000762:	e081      	b.n	8000868 <__aeabi_fdiv+0x234>
 8000764:	2301      	movs	r3, #1
 8000766:	2100      	movs	r1, #0
 8000768:	2400      	movs	r4, #0
 800076a:	402b      	ands	r3, r5
 800076c:	0264      	lsls	r4, r4, #9
 800076e:	05c9      	lsls	r1, r1, #23
 8000770:	0a60      	lsrs	r0, r4, #9
 8000772:	07db      	lsls	r3, r3, #31
 8000774:	4308      	orrs	r0, r1
 8000776:	4318      	orrs	r0, r3
 8000778:	b003      	add	sp, #12
 800077a:	bc3c      	pop	{r2, r3, r4, r5}
 800077c:	4690      	mov	r8, r2
 800077e:	4699      	mov	r9, r3
 8000780:	46a2      	mov	sl, r4
 8000782:	46ab      	mov	fp, r5
 8000784:	bdf0      	pop	{r4, r5, r6, r7, pc}
 8000786:	2480      	movs	r4, #128	; 0x80
 8000788:	2300      	movs	r3, #0
 800078a:	03e4      	lsls	r4, r4, #15
 800078c:	21ff      	movs	r1, #255	; 0xff
 800078e:	e7ed      	b.n	800076c <__aeabi_fdiv+0x138>
 8000790:	21ff      	movs	r1, #255	; 0xff
 8000792:	2400      	movs	r4, #0
 8000794:	e7ea      	b.n	800076c <__aeabi_fdiv+0x138>
 8000796:	2301      	movs	r3, #1
 8000798:	1a59      	subs	r1, r3, r1
 800079a:	291b      	cmp	r1, #27
 800079c:	dd66      	ble.n	800086c <__aeabi_fdiv+0x238>
 800079e:	9a01      	ldr	r2, [sp, #4]
 80007a0:	4013      	ands	r3, r2
 80007a2:	2100      	movs	r1, #0
 80007a4:	2400      	movs	r4, #0
 80007a6:	e7e1      	b.n	800076c <__aeabi_fdiv+0x138>
 80007a8:	2380      	movs	r3, #128	; 0x80
 80007aa:	03db      	lsls	r3, r3, #15
 80007ac:	421c      	tst	r4, r3
 80007ae:	d038      	beq.n	8000822 <__aeabi_fdiv+0x1ee>
 80007b0:	421d      	tst	r5, r3
 80007b2:	d051      	beq.n	8000858 <__aeabi_fdiv+0x224>
 80007b4:	431c      	orrs	r4, r3
 80007b6:	0264      	lsls	r4, r4, #9
 80007b8:	0a64      	lsrs	r4, r4, #9
 80007ba:	0033      	movs	r3, r6
 80007bc:	21ff      	movs	r1, #255	; 0xff
 80007be:	e7d5      	b.n	800076c <__aeabi_fdiv+0x138>
 80007c0:	0163      	lsls	r3, r4, #5
 80007c2:	016c      	lsls	r4, r5, #5
 80007c4:	42a3      	cmp	r3, r4
 80007c6:	d23b      	bcs.n	8000840 <__aeabi_fdiv+0x20c>
 80007c8:	261b      	movs	r6, #27
 80007ca:	2100      	movs	r1, #0
 80007cc:	3801      	subs	r0, #1
 80007ce:	2501      	movs	r5, #1
 80007d0:	001f      	movs	r7, r3
 80007d2:	0049      	lsls	r1, r1, #1
 80007d4:	005b      	lsls	r3, r3, #1
 80007d6:	2f00      	cmp	r7, #0
 80007d8:	db01      	blt.n	80007de <__aeabi_fdiv+0x1aa>
 80007da:	429c      	cmp	r4, r3
 80007dc:	d801      	bhi.n	80007e2 <__aeabi_fdiv+0x1ae>
 80007de:	1b1b      	subs	r3, r3, r4
 80007e0:	4329      	orrs	r1, r5
 80007e2:	3e01      	subs	r6, #1
 80007e4:	2e00      	cmp	r6, #0
 80007e6:	d1f3      	bne.n	80007d0 <__aeabi_fdiv+0x19c>
 80007e8:	001c      	movs	r4, r3
 80007ea:	1e63      	subs	r3, r4, #1
 80007ec:	419c      	sbcs	r4, r3
 80007ee:	430c      	orrs	r4, r1
 80007f0:	0001      	movs	r1, r0
 80007f2:	317f      	adds	r1, #127	; 0x7f
 80007f4:	2900      	cmp	r1, #0
 80007f6:	ddce      	ble.n	8000796 <__aeabi_fdiv+0x162>
 80007f8:	0763      	lsls	r3, r4, #29
 80007fa:	d004      	beq.n	8000806 <__aeabi_fdiv+0x1d2>
 80007fc:	230f      	movs	r3, #15
 80007fe:	4023      	ands	r3, r4
 8000800:	2b04      	cmp	r3, #4
 8000802:	d000      	beq.n	8000806 <__aeabi_fdiv+0x1d2>
 8000804:	3404      	adds	r4, #4
 8000806:	0123      	lsls	r3, r4, #4
 8000808:	d503      	bpl.n	8000812 <__aeabi_fdiv+0x1de>
 800080a:	0001      	movs	r1, r0
 800080c:	4b2c      	ldr	r3, [pc, #176]	; (80008c0 <__aeabi_fdiv+0x28c>)
 800080e:	3180      	adds	r1, #128	; 0x80
 8000810:	401c      	ands	r4, r3
 8000812:	29fe      	cmp	r1, #254	; 0xfe
 8000814:	dd0d      	ble.n	8000832 <__aeabi_fdiv+0x1fe>
 8000816:	2301      	movs	r3, #1
 8000818:	9a01      	ldr	r2, [sp, #4]
 800081a:	21ff      	movs	r1, #255	; 0xff
 800081c:	4013      	ands	r3, r2
 800081e:	2400      	movs	r4, #0
 8000820:	e7a4      	b.n	800076c <__aeabi_fdiv+0x138>
 8000822:	2380      	movs	r3, #128	; 0x80
 8000824:	03db      	lsls	r3, r3, #15
 8000826:	431c      	orrs	r4, r3
 8000828:	0264      	lsls	r4, r4, #9
 800082a:	0a64      	lsrs	r4, r4, #9
 800082c:	0033      	movs	r3, r6
 800082e:	21ff      	movs	r1, #255	; 0xff
 8000830:	e79c      	b.n	800076c <__aeabi_fdiv+0x138>
 8000832:	2301      	movs	r3, #1
 8000834:	9a01      	ldr	r2, [sp, #4]
 8000836:	01a4      	lsls	r4, r4, #6
 8000838:	0a64      	lsrs	r4, r4, #9
 800083a:	b2c9      	uxtb	r1, r1
 800083c:	4013      	ands	r3, r2
 800083e:	e795      	b.n	800076c <__aeabi_fdiv+0x138>
 8000840:	1b1b      	subs	r3, r3, r4
 8000842:	261a      	movs	r6, #26
 8000844:	2101      	movs	r1, #1
 8000846:	e7c2      	b.n	80007ce <__aeabi_fdiv+0x19a>
 8000848:	9b00      	ldr	r3, [sp, #0]
 800084a:	468b      	mov	fp, r1
 800084c:	469a      	mov	sl, r3
 800084e:	2400      	movs	r4, #0
 8000850:	e74c      	b.n	80006ec <__aeabi_fdiv+0xb8>
 8000852:	0263      	lsls	r3, r4, #9
 8000854:	d5e5      	bpl.n	8000822 <__aeabi_fdiv+0x1ee>
 8000856:	2500      	movs	r5, #0
 8000858:	2480      	movs	r4, #128	; 0x80
 800085a:	03e4      	lsls	r4, r4, #15
 800085c:	432c      	orrs	r4, r5
 800085e:	0264      	lsls	r4, r4, #9
 8000860:	0a64      	lsrs	r4, r4, #9
 8000862:	9b00      	ldr	r3, [sp, #0]
 8000864:	21ff      	movs	r1, #255	; 0xff
 8000866:	e781      	b.n	800076c <__aeabi_fdiv+0x138>
 8000868:	9501      	str	r5, [sp, #4]
 800086a:	e7c1      	b.n	80007f0 <__aeabi_fdiv+0x1bc>
 800086c:	0023      	movs	r3, r4
 800086e:	2020      	movs	r0, #32
 8000870:	40cb      	lsrs	r3, r1
 8000872:	1a41      	subs	r1, r0, r1
 8000874:	408c      	lsls	r4, r1
 8000876:	1e61      	subs	r1, r4, #1
 8000878:	418c      	sbcs	r4, r1
 800087a:	431c      	orrs	r4, r3
 800087c:	0763      	lsls	r3, r4, #29
 800087e:	d004      	beq.n	800088a <__aeabi_fdiv+0x256>
 8000880:	230f      	movs	r3, #15
 8000882:	4023      	ands	r3, r4
 8000884:	2b04      	cmp	r3, #4
 8000886:	d000      	beq.n	800088a <__aeabi_fdiv+0x256>
 8000888:	3404      	adds	r4, #4
 800088a:	0163      	lsls	r3, r4, #5
 800088c:	d505      	bpl.n	800089a <__aeabi_fdiv+0x266>
 800088e:	2301      	movs	r3, #1
 8000890:	9a01      	ldr	r2, [sp, #4]
 8000892:	2101      	movs	r1, #1
 8000894:	4013      	ands	r3, r2
 8000896:	2400      	movs	r4, #0
 8000898:	e768      	b.n	800076c <__aeabi_fdiv+0x138>
 800089a:	2301      	movs	r3, #1
 800089c:	9a01      	ldr	r2, [sp, #4]
 800089e:	01a4      	lsls	r4, r4, #6
 80008a0:	0a64      	lsrs	r4, r4, #9
 80008a2:	4013      	ands	r3, r2
 80008a4:	2100      	movs	r1, #0
 80008a6:	e761      	b.n	800076c <__aeabi_fdiv+0x138>
 80008a8:	2380      	movs	r3, #128	; 0x80
 80008aa:	03db      	lsls	r3, r3, #15
 80008ac:	431c      	orrs	r4, r3
 80008ae:	0264      	lsls	r4, r4, #9
 80008b0:	0a64      	lsrs	r4, r4, #9
 80008b2:	4653      	mov	r3, sl
 80008b4:	21ff      	movs	r1, #255	; 0xff
 80008b6:	e759      	b.n	800076c <__aeabi_fdiv+0x138>
 80008b8:	08004160 	.word	0x08004160
 80008bc:	080041a0 	.word	0x080041a0
 80008c0:	f7ffffff 	.word	0xf7ffffff

080008c4 <__eqsf2>:
 80008c4:	b570      	push	{r4, r5, r6, lr}
 80008c6:	0042      	lsls	r2, r0, #1
 80008c8:	0245      	lsls	r5, r0, #9
 80008ca:	024e      	lsls	r6, r1, #9
 80008cc:	004c      	lsls	r4, r1, #1
 80008ce:	0fc3      	lsrs	r3, r0, #31
 80008d0:	0a6d      	lsrs	r5, r5, #9
 80008d2:	0e12      	lsrs	r2, r2, #24
 80008d4:	0a76      	lsrs	r6, r6, #9
 80008d6:	0e24      	lsrs	r4, r4, #24
 80008d8:	0fc9      	lsrs	r1, r1, #31
 80008da:	2001      	movs	r0, #1
 80008dc:	2aff      	cmp	r2, #255	; 0xff
 80008de:	d006      	beq.n	80008ee <__eqsf2+0x2a>
 80008e0:	2cff      	cmp	r4, #255	; 0xff
 80008e2:	d003      	beq.n	80008ec <__eqsf2+0x28>
 80008e4:	42a2      	cmp	r2, r4
 80008e6:	d101      	bne.n	80008ec <__eqsf2+0x28>
 80008e8:	42b5      	cmp	r5, r6
 80008ea:	d006      	beq.n	80008fa <__eqsf2+0x36>
 80008ec:	bd70      	pop	{r4, r5, r6, pc}
 80008ee:	2d00      	cmp	r5, #0
 80008f0:	d1fc      	bne.n	80008ec <__eqsf2+0x28>
 80008f2:	2cff      	cmp	r4, #255	; 0xff
 80008f4:	d1fa      	bne.n	80008ec <__eqsf2+0x28>
 80008f6:	2e00      	cmp	r6, #0
 80008f8:	d1f8      	bne.n	80008ec <__eqsf2+0x28>
 80008fa:	428b      	cmp	r3, r1
 80008fc:	d006      	beq.n	800090c <__eqsf2+0x48>
 80008fe:	2001      	movs	r0, #1
 8000900:	2a00      	cmp	r2, #0
 8000902:	d1f3      	bne.n	80008ec <__eqsf2+0x28>
 8000904:	0028      	movs	r0, r5
 8000906:	1e45      	subs	r5, r0, #1
 8000908:	41a8      	sbcs	r0, r5
 800090a:	e7ef      	b.n	80008ec <__eqsf2+0x28>
 800090c:	2000      	movs	r0, #0
 800090e:	e7ed      	b.n	80008ec <__eqsf2+0x28>

08000910 <__gesf2>:
 8000910:	b5f0      	push	{r4, r5, r6, r7, lr}
 8000912:	0042      	lsls	r2, r0, #1
 8000914:	0245      	lsls	r5, r0, #9
 8000916:	024c      	lsls	r4, r1, #9
 8000918:	0fc3      	lsrs	r3, r0, #31
 800091a:	0048      	lsls	r0, r1, #1
 800091c:	0a6d      	lsrs	r5, r5, #9
 800091e:	0e12      	lsrs	r2, r2, #24
 8000920:	0a64      	lsrs	r4, r4, #9
 8000922:	0e00      	lsrs	r0, r0, #24
 8000924:	0fc9      	lsrs	r1, r1, #31
 8000926:	2aff      	cmp	r2, #255	; 0xff
 8000928:	d01e      	beq.n	8000968 <__gesf2+0x58>
 800092a:	28ff      	cmp	r0, #255	; 0xff
 800092c:	d021      	beq.n	8000972 <__gesf2+0x62>
 800092e:	2a00      	cmp	r2, #0
 8000930:	d10a      	bne.n	8000948 <__gesf2+0x38>
 8000932:	426e      	negs	r6, r5
 8000934:	416e      	adcs	r6, r5
 8000936:	b2f6      	uxtb	r6, r6
 8000938:	2800      	cmp	r0, #0
 800093a:	d10f      	bne.n	800095c <__gesf2+0x4c>
 800093c:	2c00      	cmp	r4, #0
 800093e:	d10d      	bne.n	800095c <__gesf2+0x4c>
 8000940:	2000      	movs	r0, #0
 8000942:	2d00      	cmp	r5, #0
 8000944:	d009      	beq.n	800095a <__gesf2+0x4a>
 8000946:	e005      	b.n	8000954 <__gesf2+0x44>
 8000948:	2800      	cmp	r0, #0
 800094a:	d101      	bne.n	8000950 <__gesf2+0x40>
 800094c:	2c00      	cmp	r4, #0
 800094e:	d001      	beq.n	8000954 <__gesf2+0x44>
 8000950:	428b      	cmp	r3, r1
 8000952:	d011      	beq.n	8000978 <__gesf2+0x68>
 8000954:	2101      	movs	r1, #1
 8000956:	4258      	negs	r0, r3
 8000958:	4308      	orrs	r0, r1
 800095a:	bdf0      	pop	{r4, r5, r6, r7, pc}
 800095c:	2e00      	cmp	r6, #0
 800095e:	d0f7      	beq.n	8000950 <__gesf2+0x40>
 8000960:	2001      	movs	r0, #1
 8000962:	3901      	subs	r1, #1
 8000964:	4308      	orrs	r0, r1
 8000966:	e7f8      	b.n	800095a <__gesf2+0x4a>
 8000968:	2d00      	cmp	r5, #0
 800096a:	d0de      	beq.n	800092a <__gesf2+0x1a>
 800096c:	2002      	movs	r0, #2
 800096e:	4240      	negs	r0, r0
 8000970:	e7f3      	b.n	800095a <__gesf2+0x4a>
 8000972:	2c00      	cmp	r4, #0
 8000974:	d0db      	beq.n	800092e <__gesf2+0x1e>
 8000976:	e7f9      	b.n	800096c <__gesf2+0x5c>
 8000978:	4282      	cmp	r2, r0
 800097a:	dceb      	bgt.n	8000954 <__gesf2+0x44>
 800097c:	db04      	blt.n	8000988 <__gesf2+0x78>
 800097e:	42a5      	cmp	r5, r4
 8000980:	d8e8      	bhi.n	8000954 <__gesf2+0x44>
 8000982:	2000      	movs	r0, #0
 8000984:	42a5      	cmp	r5, r4
 8000986:	d2e8      	bcs.n	800095a <__gesf2+0x4a>
 8000988:	2101      	movs	r1, #1
 800098a:	1e58      	subs	r0, r3, #1
 800098c:	4308      	orrs	r0, r1
 800098e:	e7e4      	b.n	800095a <__gesf2+0x4a>

08000990 <__lesf2>:
 8000990:	b5f0      	push	{r4, r5, r6, r7, lr}
 8000992:	0042      	lsls	r2, r0, #1
 8000994:	024d      	lsls	r5, r1, #9
 8000996:	004c      	lsls	r4, r1, #1
 8000998:	0246      	lsls	r6, r0, #9
 800099a:	0a76      	lsrs	r6, r6, #9
 800099c:	0e12      	lsrs	r2, r2, #24
 800099e:	0fc3      	lsrs	r3, r0, #31
 80009a0:	0a6d      	lsrs	r5, r5, #9
 80009a2:	0e24      	lsrs	r4, r4, #24
 80009a4:	0fc9      	lsrs	r1, r1, #31
 80009a6:	2aff      	cmp	r2, #255	; 0xff
 80009a8:	d016      	beq.n	80009d8 <__lesf2+0x48>
 80009aa:	2cff      	cmp	r4, #255	; 0xff
 80009ac:	d018      	beq.n	80009e0 <__lesf2+0x50>
 80009ae:	2a00      	cmp	r2, #0
 80009b0:	d10a      	bne.n	80009c8 <__lesf2+0x38>
 80009b2:	4270      	negs	r0, r6
 80009b4:	4170      	adcs	r0, r6
 80009b6:	b2c0      	uxtb	r0, r0
 80009b8:	2c00      	cmp	r4, #0
 80009ba:	d015      	beq.n	80009e8 <__lesf2+0x58>
 80009bc:	2800      	cmp	r0, #0
 80009be:	d005      	beq.n	80009cc <__lesf2+0x3c>
 80009c0:	2001      	movs	r0, #1
 80009c2:	3901      	subs	r1, #1
 80009c4:	4308      	orrs	r0, r1
 80009c6:	bdf0      	pop	{r4, r5, r6, r7, pc}
 80009c8:	2c00      	cmp	r4, #0
 80009ca:	d013      	beq.n	80009f4 <__lesf2+0x64>
 80009cc:	4299      	cmp	r1, r3
 80009ce:	d014      	beq.n	80009fa <__lesf2+0x6a>
 80009d0:	2001      	movs	r0, #1
 80009d2:	425b      	negs	r3, r3
 80009d4:	4318      	orrs	r0, r3
 80009d6:	e7f6      	b.n	80009c6 <__lesf2+0x36>
 80009d8:	2002      	movs	r0, #2
 80009da:	2e00      	cmp	r6, #0
 80009dc:	d1f3      	bne.n	80009c6 <__lesf2+0x36>
 80009de:	e7e4      	b.n	80009aa <__lesf2+0x1a>
 80009e0:	2002      	movs	r0, #2
 80009e2:	2d00      	cmp	r5, #0
 80009e4:	d1ef      	bne.n	80009c6 <__lesf2+0x36>
 80009e6:	e7e2      	b.n	80009ae <__lesf2+0x1e>
 80009e8:	2d00      	cmp	r5, #0
 80009ea:	d1e7      	bne.n	80009bc <__lesf2+0x2c>
 80009ec:	2000      	movs	r0, #0
 80009ee:	2e00      	cmp	r6, #0
 80009f0:	d0e9      	beq.n	80009c6 <__lesf2+0x36>
 80009f2:	e7ed      	b.n	80009d0 <__lesf2+0x40>
 80009f4:	2d00      	cmp	r5, #0
 80009f6:	d1e9      	bne.n	80009cc <__lesf2+0x3c>
 80009f8:	e7ea      	b.n	80009d0 <__lesf2+0x40>
 80009fa:	42a2      	cmp	r2, r4
 80009fc:	dc06      	bgt.n	8000a0c <__lesf2+0x7c>
 80009fe:	dbdf      	blt.n	80009c0 <__lesf2+0x30>
 8000a00:	42ae      	cmp	r6, r5
 8000a02:	d803      	bhi.n	8000a0c <__lesf2+0x7c>
 8000a04:	2000      	movs	r0, #0
 8000a06:	42ae      	cmp	r6, r5
 8000a08:	d3da      	bcc.n	80009c0 <__lesf2+0x30>
 8000a0a:	e7dc      	b.n	80009c6 <__lesf2+0x36>
 8000a0c:	2001      	movs	r0, #1
 8000a0e:	4249      	negs	r1, r1
 8000a10:	4308      	orrs	r0, r1
 8000a12:	e7d8      	b.n	80009c6 <__lesf2+0x36>

08000a14 <__aeabi_fmul>:
 8000a14:	b5f8      	push	{r3, r4, r5, r6, r7, lr}
 8000a16:	4657      	mov	r7, sl
 8000a18:	464e      	mov	r6, r9
 8000a1a:	4645      	mov	r5, r8
 8000a1c:	46de      	mov	lr, fp
 8000a1e:	b5e0      	push	{r5, r6, r7, lr}
 8000a20:	0247      	lsls	r7, r0, #9
 8000a22:	0046      	lsls	r6, r0, #1
 8000a24:	4688      	mov	r8, r1
 8000a26:	0a7f      	lsrs	r7, r7, #9
 8000a28:	0e36      	lsrs	r6, r6, #24
 8000a2a:	0fc4      	lsrs	r4, r0, #31
 8000a2c:	2e00      	cmp	r6, #0
 8000a2e:	d047      	beq.n	8000ac0 <__aeabi_fmul+0xac>
 8000a30:	2eff      	cmp	r6, #255	; 0xff
 8000a32:	d024      	beq.n	8000a7e <__aeabi_fmul+0x6a>
 8000a34:	00fb      	lsls	r3, r7, #3
 8000a36:	2780      	movs	r7, #128	; 0x80
 8000a38:	04ff      	lsls	r7, r7, #19
 8000a3a:	431f      	orrs	r7, r3
 8000a3c:	2300      	movs	r3, #0
 8000a3e:	4699      	mov	r9, r3
 8000a40:	469a      	mov	sl, r3
 8000a42:	3e7f      	subs	r6, #127	; 0x7f
 8000a44:	4643      	mov	r3, r8
 8000a46:	025d      	lsls	r5, r3, #9
 8000a48:	0058      	lsls	r0, r3, #1
 8000a4a:	0fdb      	lsrs	r3, r3, #31
 8000a4c:	0a6d      	lsrs	r5, r5, #9
 8000a4e:	0e00      	lsrs	r0, r0, #24
 8000a50:	4698      	mov	r8, r3
 8000a52:	d043      	beq.n	8000adc <__aeabi_fmul+0xc8>
 8000a54:	28ff      	cmp	r0, #255	; 0xff
 8000a56:	d03b      	beq.n	8000ad0 <__aeabi_fmul+0xbc>
 8000a58:	00eb      	lsls	r3, r5, #3
 8000a5a:	2580      	movs	r5, #128	; 0x80
 8000a5c:	2200      	movs	r2, #0
 8000a5e:	04ed      	lsls	r5, r5, #19
 8000a60:	431d      	orrs	r5, r3
 8000a62:	387f      	subs	r0, #127	; 0x7f
 8000a64:	1836      	adds	r6, r6, r0
 8000a66:	1c73      	adds	r3, r6, #1
 8000a68:	4641      	mov	r1, r8
 8000a6a:	469b      	mov	fp, r3
 8000a6c:	464b      	mov	r3, r9
 8000a6e:	4061      	eors	r1, r4
 8000a70:	4313      	orrs	r3, r2
 8000a72:	2b0f      	cmp	r3, #15
 8000a74:	d864      	bhi.n	8000b40 <__aeabi_fmul+0x12c>
 8000a76:	4875      	ldr	r0, [pc, #468]	; (8000c4c <__aeabi_fmul+0x238>)
 8000a78:	009b      	lsls	r3, r3, #2
 8000a7a:	58c3      	ldr	r3, [r0, r3]
 8000a7c:	469f      	mov	pc, r3
 8000a7e:	2f00      	cmp	r7, #0
 8000a80:	d142      	bne.n	8000b08 <__aeabi_fmul+0xf4>
 8000a82:	2308      	movs	r3, #8
 8000a84:	4699      	mov	r9, r3
 8000a86:	3b06      	subs	r3, #6
 8000a88:	26ff      	movs	r6, #255	; 0xff
 8000a8a:	469a      	mov	sl, r3
 8000a8c:	e7da      	b.n	8000a44 <__aeabi_fmul+0x30>
 8000a8e:	4641      	mov	r1, r8
 8000a90:	2a02      	cmp	r2, #2
 8000a92:	d028      	beq.n	8000ae6 <__aeabi_fmul+0xd2>
 8000a94:	2a03      	cmp	r2, #3
 8000a96:	d100      	bne.n	8000a9a <__aeabi_fmul+0x86>
 8000a98:	e0ce      	b.n	8000c38 <__aeabi_fmul+0x224>
 8000a9a:	2a01      	cmp	r2, #1
 8000a9c:	d000      	beq.n	8000aa0 <__aeabi_fmul+0x8c>
 8000a9e:	e0ac      	b.n	8000bfa <__aeabi_fmul+0x1e6>
 8000aa0:	4011      	ands	r1, r2
 8000aa2:	2000      	movs	r0, #0
 8000aa4:	2200      	movs	r2, #0
 8000aa6:	b2cc      	uxtb	r4, r1
 8000aa8:	0240      	lsls	r0, r0, #9
 8000aaa:	05d2      	lsls	r2, r2, #23
 8000aac:	0a40      	lsrs	r0, r0, #9
 8000aae:	07e4      	lsls	r4, r4, #31
 8000ab0:	4310      	orrs	r0, r2
 8000ab2:	4320      	orrs	r0, r4
 8000ab4:	bc3c      	pop	{r2, r3, r4, r5}
 8000ab6:	4690      	mov	r8, r2
 8000ab8:	4699      	mov	r9, r3
 8000aba:	46a2      	mov	sl, r4
 8000abc:	46ab      	mov	fp, r5
 8000abe:	bdf8      	pop	{r3, r4, r5, r6, r7, pc}
 8000ac0:	2f00      	cmp	r7, #0
 8000ac2:	d115      	bne.n	8000af0 <__aeabi_fmul+0xdc>
 8000ac4:	2304      	movs	r3, #4
 8000ac6:	4699      	mov	r9, r3
 8000ac8:	3b03      	subs	r3, #3
 8000aca:	2600      	movs	r6, #0
 8000acc:	469a      	mov	sl, r3
 8000ace:	e7b9      	b.n	8000a44 <__aeabi_fmul+0x30>
 8000ad0:	20ff      	movs	r0, #255	; 0xff
 8000ad2:	2202      	movs	r2, #2
 8000ad4:	2d00      	cmp	r5, #0
 8000ad6:	d0c5      	beq.n	8000a64 <__aeabi_fmul+0x50>
 8000ad8:	2203      	movs	r2, #3
 8000ada:	e7c3      	b.n	8000a64 <__aeabi_fmul+0x50>
 8000adc:	2d00      	cmp	r5, #0
 8000ade:	d119      	bne.n	8000b14 <__aeabi_fmul+0x100>
 8000ae0:	2000      	movs	r0, #0
 8000ae2:	2201      	movs	r2, #1
 8000ae4:	e7be      	b.n	8000a64 <__aeabi_fmul+0x50>
 8000ae6:	2401      	movs	r4, #1
 8000ae8:	22ff      	movs	r2, #255	; 0xff
 8000aea:	400c      	ands	r4, r1
 8000aec:	2000      	movs	r0, #0
 8000aee:	e7db      	b.n	8000aa8 <__aeabi_fmul+0x94>
 8000af0:	0038      	movs	r0, r7
 8000af2:	f001 feb5 	bl	8002860 <__clzsi2>
 8000af6:	2676      	movs	r6, #118	; 0x76
 8000af8:	1f43      	subs	r3, r0, #5
 8000afa:	409f      	lsls	r7, r3
 8000afc:	2300      	movs	r3, #0
 8000afe:	4276      	negs	r6, r6
 8000b00:	1a36      	subs	r6, r6, r0
 8000b02:	4699      	mov	r9, r3
 8000b04:	469a      	mov	sl, r3
 8000b06:	e79d      	b.n	8000a44 <__aeabi_fmul+0x30>
 8000b08:	230c      	movs	r3, #12
 8000b0a:	4699      	mov	r9, r3
 8000b0c:	3b09      	subs	r3, #9
 8000b0e:	26ff      	movs	r6, #255	; 0xff
 8000b10:	469a      	mov	sl, r3
 8000b12:	e797      	b.n	8000a44 <__aeabi_fmul+0x30>
 8000b14:	0028      	movs	r0, r5
 8000b16:	f001 fea3 	bl	8002860 <__clzsi2>
 8000b1a:	1f43      	subs	r3, r0, #5
 8000b1c:	409d      	lsls	r5, r3
 8000b1e:	2376      	movs	r3, #118	; 0x76
 8000b20:	425b      	negs	r3, r3
 8000b22:	1a18      	subs	r0, r3, r0
 8000b24:	2200      	movs	r2, #0
 8000b26:	e79d      	b.n	8000a64 <__aeabi_fmul+0x50>
 8000b28:	2080      	movs	r0, #128	; 0x80
 8000b2a:	2400      	movs	r4, #0
 8000b2c:	03c0      	lsls	r0, r0, #15
 8000b2e:	22ff      	movs	r2, #255	; 0xff
 8000b30:	e7ba      	b.n	8000aa8 <__aeabi_fmul+0x94>
 8000b32:	003d      	movs	r5, r7
 8000b34:	4652      	mov	r2, sl
 8000b36:	e7ab      	b.n	8000a90 <__aeabi_fmul+0x7c>
 8000b38:	003d      	movs	r5, r7
 8000b3a:	0021      	movs	r1, r4
 8000b3c:	4652      	mov	r2, sl
 8000b3e:	e7a7      	b.n	8000a90 <__aeabi_fmul+0x7c>
 8000b40:	0c3b      	lsrs	r3, r7, #16
 8000b42:	469c      	mov	ip, r3
 8000b44:	042a      	lsls	r2, r5, #16
 8000b46:	0c12      	lsrs	r2, r2, #16
 8000b48:	0c2b      	lsrs	r3, r5, #16
 8000b4a:	0014      	movs	r4, r2
 8000b4c:	4660      	mov	r0, ip
 8000b4e:	4665      	mov	r5, ip
 8000b50:	043f      	lsls	r7, r7, #16
 8000b52:	0c3f      	lsrs	r7, r7, #16
 8000b54:	437c      	muls	r4, r7
 8000b56:	4342      	muls	r2, r0
 8000b58:	435d      	muls	r5, r3
 8000b5a:	437b      	muls	r3, r7
 8000b5c:	0c27      	lsrs	r7, r4, #16
 8000b5e:	189b      	adds	r3, r3, r2
 8000b60:	18ff      	adds	r7, r7, r3
 8000b62:	42ba      	cmp	r2, r7
 8000b64:	d903      	bls.n	8000b6e <__aeabi_fmul+0x15a>
 8000b66:	2380      	movs	r3, #128	; 0x80
 8000b68:	025b      	lsls	r3, r3, #9
 8000b6a:	469c      	mov	ip, r3
 8000b6c:	4465      	add	r5, ip
 8000b6e:	0424      	lsls	r4, r4, #16
 8000b70:	043a      	lsls	r2, r7, #16
 8000b72:	0c24      	lsrs	r4, r4, #16
 8000b74:	1912      	adds	r2, r2, r4
 8000b76:	0193      	lsls	r3, r2, #6
 8000b78:	1e5c      	subs	r4, r3, #1
 8000b7a:	41a3      	sbcs	r3, r4
 8000b7c:	0c3f      	lsrs	r7, r7, #16
 8000b7e:	0e92      	lsrs	r2, r2, #26
 8000b80:	197d      	adds	r5, r7, r5
 8000b82:	431a      	orrs	r2, r3
 8000b84:	01ad      	lsls	r5, r5, #6
 8000b86:	4315      	orrs	r5, r2
 8000b88:	012b      	lsls	r3, r5, #4
 8000b8a:	d504      	bpl.n	8000b96 <__aeabi_fmul+0x182>
 8000b8c:	2301      	movs	r3, #1
 8000b8e:	465e      	mov	r6, fp
 8000b90:	086a      	lsrs	r2, r5, #1
 8000b92:	401d      	ands	r5, r3
 8000b94:	4315      	orrs	r5, r2
 8000b96:	0032      	movs	r2, r6
 8000b98:	327f      	adds	r2, #127	; 0x7f
 8000b9a:	2a00      	cmp	r2, #0
 8000b9c:	dd25      	ble.n	8000bea <__aeabi_fmul+0x1d6>
 8000b9e:	076b      	lsls	r3, r5, #29
 8000ba0:	d004      	beq.n	8000bac <__aeabi_fmul+0x198>
 8000ba2:	230f      	movs	r3, #15
 8000ba4:	402b      	ands	r3, r5
 8000ba6:	2b04      	cmp	r3, #4
 8000ba8:	d000      	beq.n	8000bac <__aeabi_fmul+0x198>
 8000baa:	3504      	adds	r5, #4
 8000bac:	012b      	lsls	r3, r5, #4
 8000bae:	d503      	bpl.n	8000bb8 <__aeabi_fmul+0x1a4>
 8000bb0:	0032      	movs	r2, r6
 8000bb2:	4b27      	ldr	r3, [pc, #156]	; (8000c50 <__aeabi_fmul+0x23c>)
 8000bb4:	3280      	adds	r2, #128	; 0x80
 8000bb6:	401d      	ands	r5, r3
 8000bb8:	2afe      	cmp	r2, #254	; 0xfe
 8000bba:	dc94      	bgt.n	8000ae6 <__aeabi_fmul+0xd2>
 8000bbc:	2401      	movs	r4, #1
 8000bbe:	01a8      	lsls	r0, r5, #6
 8000bc0:	0a40      	lsrs	r0, r0, #9
 8000bc2:	b2d2      	uxtb	r2, r2
 8000bc4:	400c      	ands	r4, r1
 8000bc6:	e76f      	b.n	8000aa8 <__aeabi_fmul+0x94>
 8000bc8:	2080      	movs	r0, #128	; 0x80
 8000bca:	03c0      	lsls	r0, r0, #15
 8000bcc:	4207      	tst	r7, r0
 8000bce:	d007      	beq.n	8000be0 <__aeabi_fmul+0x1cc>
 8000bd0:	4205      	tst	r5, r0
 8000bd2:	d105      	bne.n	8000be0 <__aeabi_fmul+0x1cc>
 8000bd4:	4328      	orrs	r0, r5
 8000bd6:	0240      	lsls	r0, r0, #9
 8000bd8:	0a40      	lsrs	r0, r0, #9
 8000bda:	4644      	mov	r4, r8
 8000bdc:	22ff      	movs	r2, #255	; 0xff
 8000bde:	e763      	b.n	8000aa8 <__aeabi_fmul+0x94>
 8000be0:	4338      	orrs	r0, r7
 8000be2:	0240      	lsls	r0, r0, #9
 8000be4:	0a40      	lsrs	r0, r0, #9
 8000be6:	22ff      	movs	r2, #255	; 0xff
 8000be8:	e75e      	b.n	8000aa8 <__aeabi_fmul+0x94>
 8000bea:	2401      	movs	r4, #1
 8000bec:	1aa3      	subs	r3, r4, r2
 8000bee:	2b1b      	cmp	r3, #27
 8000bf0:	dd05      	ble.n	8000bfe <__aeabi_fmul+0x1ea>
 8000bf2:	400c      	ands	r4, r1
 8000bf4:	2200      	movs	r2, #0
 8000bf6:	2000      	movs	r0, #0
 8000bf8:	e756      	b.n	8000aa8 <__aeabi_fmul+0x94>
 8000bfa:	465e      	mov	r6, fp
 8000bfc:	e7cb      	b.n	8000b96 <__aeabi_fmul+0x182>
 8000bfe:	002a      	movs	r2, r5
 8000c00:	2020      	movs	r0, #32
 8000c02:	40da      	lsrs	r2, r3
 8000c04:	1ac3      	subs	r3, r0, r3
 8000c06:	409d      	lsls	r5, r3
 8000c08:	002b      	movs	r3, r5
 8000c0a:	1e5d      	subs	r5, r3, #1
 8000c0c:	41ab      	sbcs	r3, r5
 8000c0e:	4313      	orrs	r3, r2
 8000c10:	075a      	lsls	r2, r3, #29
 8000c12:	d004      	beq.n	8000c1e <__aeabi_fmul+0x20a>
 8000c14:	220f      	movs	r2, #15
 8000c16:	401a      	ands	r2, r3
 8000c18:	2a04      	cmp	r2, #4
 8000c1a:	d000      	beq.n	8000c1e <__aeabi_fmul+0x20a>
 8000c1c:	3304      	adds	r3, #4
 8000c1e:	015a      	lsls	r2, r3, #5
 8000c20:	d504      	bpl.n	8000c2c <__aeabi_fmul+0x218>
 8000c22:	2401      	movs	r4, #1
 8000c24:	2201      	movs	r2, #1
 8000c26:	400c      	ands	r4, r1
 8000c28:	2000      	movs	r0, #0
 8000c2a:	e73d      	b.n	8000aa8 <__aeabi_fmul+0x94>
 8000c2c:	2401      	movs	r4, #1
 8000c2e:	019b      	lsls	r3, r3, #6
 8000c30:	0a58      	lsrs	r0, r3, #9
 8000c32:	400c      	ands	r4, r1
 8000c34:	2200      	movs	r2, #0
 8000c36:	e737      	b.n	8000aa8 <__aeabi_fmul+0x94>
 8000c38:	2080      	movs	r0, #128	; 0x80
 8000c3a:	2401      	movs	r4, #1
 8000c3c:	03c0      	lsls	r0, r0, #15
 8000c3e:	4328      	orrs	r0, r5
 8000c40:	0240      	lsls	r0, r0, #9
 8000c42:	0a40      	lsrs	r0, r0, #9
 8000c44:	400c      	ands	r4, r1
 8000c46:	22ff      	movs	r2, #255	; 0xff
 8000c48:	e72e      	b.n	8000aa8 <__aeabi_fmul+0x94>
 8000c4a:	46c0      	nop			; (mov r8, r8)
 8000c4c:	080041e0 	.word	0x080041e0
 8000c50:	f7ffffff 	.word	0xf7ffffff

08000c54 <__aeabi_i2f>:
 8000c54:	b570      	push	{r4, r5, r6, lr}
 8000c56:	2800      	cmp	r0, #0
 8000c58:	d030      	beq.n	8000cbc <__aeabi_i2f+0x68>
 8000c5a:	17c3      	asrs	r3, r0, #31
 8000c5c:	18c4      	adds	r4, r0, r3
 8000c5e:	405c      	eors	r4, r3
 8000c60:	0fc5      	lsrs	r5, r0, #31
 8000c62:	0020      	movs	r0, r4
 8000c64:	f001 fdfc 	bl	8002860 <__clzsi2>
 8000c68:	239e      	movs	r3, #158	; 0x9e
 8000c6a:	1a1b      	subs	r3, r3, r0
 8000c6c:	2b96      	cmp	r3, #150	; 0x96
 8000c6e:	dc0d      	bgt.n	8000c8c <__aeabi_i2f+0x38>
 8000c70:	2296      	movs	r2, #150	; 0x96
 8000c72:	1ad2      	subs	r2, r2, r3
 8000c74:	4094      	lsls	r4, r2
 8000c76:	002a      	movs	r2, r5
 8000c78:	0264      	lsls	r4, r4, #9
 8000c7a:	0a64      	lsrs	r4, r4, #9
 8000c7c:	b2db      	uxtb	r3, r3
 8000c7e:	0264      	lsls	r4, r4, #9
 8000c80:	05db      	lsls	r3, r3, #23
 8000c82:	0a60      	lsrs	r0, r4, #9
 8000c84:	07d2      	lsls	r2, r2, #31
 8000c86:	4318      	orrs	r0, r3
 8000c88:	4310      	orrs	r0, r2
 8000c8a:	bd70      	pop	{r4, r5, r6, pc}
 8000c8c:	2b99      	cmp	r3, #153	; 0x99
 8000c8e:	dc19      	bgt.n	8000cc4 <__aeabi_i2f+0x70>
 8000c90:	2299      	movs	r2, #153	; 0x99
 8000c92:	1ad2      	subs	r2, r2, r3
 8000c94:	2a00      	cmp	r2, #0
 8000c96:	dd29      	ble.n	8000cec <__aeabi_i2f+0x98>
 8000c98:	4094      	lsls	r4, r2
 8000c9a:	0022      	movs	r2, r4
 8000c9c:	4c14      	ldr	r4, [pc, #80]	; (8000cf0 <__aeabi_i2f+0x9c>)
 8000c9e:	4014      	ands	r4, r2
 8000ca0:	0751      	lsls	r1, r2, #29
 8000ca2:	d004      	beq.n	8000cae <__aeabi_i2f+0x5a>
 8000ca4:	210f      	movs	r1, #15
 8000ca6:	400a      	ands	r2, r1
 8000ca8:	2a04      	cmp	r2, #4
 8000caa:	d000      	beq.n	8000cae <__aeabi_i2f+0x5a>
 8000cac:	3404      	adds	r4, #4
 8000cae:	0162      	lsls	r2, r4, #5
 8000cb0:	d413      	bmi.n	8000cda <__aeabi_i2f+0x86>
 8000cb2:	01a4      	lsls	r4, r4, #6
 8000cb4:	0a64      	lsrs	r4, r4, #9
 8000cb6:	b2db      	uxtb	r3, r3
 8000cb8:	002a      	movs	r2, r5
 8000cba:	e7e0      	b.n	8000c7e <__aeabi_i2f+0x2a>
 8000cbc:	2200      	movs	r2, #0
 8000cbe:	2300      	movs	r3, #0
 8000cc0:	2400      	movs	r4, #0
 8000cc2:	e7dc      	b.n	8000c7e <__aeabi_i2f+0x2a>
 8000cc4:	2205      	movs	r2, #5
 8000cc6:	0021      	movs	r1, r4
 8000cc8:	1a12      	subs	r2, r2, r0
 8000cca:	40d1      	lsrs	r1, r2
 8000ccc:	22b9      	movs	r2, #185	; 0xb9
 8000cce:	1ad2      	subs	r2, r2, r3
 8000cd0:	4094      	lsls	r4, r2
 8000cd2:	1e62      	subs	r2, r4, #1
 8000cd4:	4194      	sbcs	r4, r2
 8000cd6:	430c      	orrs	r4, r1
 8000cd8:	e7da      	b.n	8000c90 <__aeabi_i2f+0x3c>
 8000cda:	4b05      	ldr	r3, [pc, #20]	; (8000cf0 <__aeabi_i2f+0x9c>)
 8000cdc:	002a      	movs	r2, r5
 8000cde:	401c      	ands	r4, r3
 8000ce0:	239f      	movs	r3, #159	; 0x9f
 8000ce2:	01a4      	lsls	r4, r4, #6
 8000ce4:	1a1b      	subs	r3, r3, r0
 8000ce6:	0a64      	lsrs	r4, r4, #9
 8000ce8:	b2db      	uxtb	r3, r3
 8000cea:	e7c8      	b.n	8000c7e <__aeabi_i2f+0x2a>
 8000cec:	0022      	movs	r2, r4
 8000cee:	e7d5      	b.n	8000c9c <__aeabi_i2f+0x48>
 8000cf0:	fbffffff 	.word	0xfbffffff

08000cf4 <__aeabi_dadd>:
 8000cf4:	b5f8      	push	{r3, r4, r5, r6, r7, lr}
 8000cf6:	4645      	mov	r5, r8
 8000cf8:	46de      	mov	lr, fp
 8000cfa:	4657      	mov	r7, sl
 8000cfc:	464e      	mov	r6, r9
 8000cfe:	030c      	lsls	r4, r1, #12
 8000d00:	b5e0      	push	{r5, r6, r7, lr}
 8000d02:	004e      	lsls	r6, r1, #1
 8000d04:	0fc9      	lsrs	r1, r1, #31
 8000d06:	4688      	mov	r8, r1
 8000d08:	000d      	movs	r5, r1
 8000d0a:	0a61      	lsrs	r1, r4, #9
 8000d0c:	0f44      	lsrs	r4, r0, #29
 8000d0e:	430c      	orrs	r4, r1
 8000d10:	00c7      	lsls	r7, r0, #3
 8000d12:	0319      	lsls	r1, r3, #12
 8000d14:	0058      	lsls	r0, r3, #1
 8000d16:	0fdb      	lsrs	r3, r3, #31
 8000d18:	469b      	mov	fp, r3
 8000d1a:	0a4b      	lsrs	r3, r1, #9
 8000d1c:	0f51      	lsrs	r1, r2, #29
 8000d1e:	430b      	orrs	r3, r1
 8000d20:	0d76      	lsrs	r6, r6, #21
 8000d22:	0d40      	lsrs	r0, r0, #21
 8000d24:	0019      	movs	r1, r3
 8000d26:	00d2      	lsls	r2, r2, #3
 8000d28:	45d8      	cmp	r8, fp
 8000d2a:	d100      	bne.n	8000d2e <__aeabi_dadd+0x3a>
 8000d2c:	e0ae      	b.n	8000e8c <__aeabi_dadd+0x198>
 8000d2e:	1a35      	subs	r5, r6, r0
 8000d30:	2d00      	cmp	r5, #0
 8000d32:	dc00      	bgt.n	8000d36 <__aeabi_dadd+0x42>
 8000d34:	e0f6      	b.n	8000f24 <__aeabi_dadd+0x230>
 8000d36:	2800      	cmp	r0, #0
 8000d38:	d10f      	bne.n	8000d5a <__aeabi_dadd+0x66>
 8000d3a:	4313      	orrs	r3, r2
 8000d3c:	d100      	bne.n	8000d40 <__aeabi_dadd+0x4c>
 8000d3e:	e0db      	b.n	8000ef8 <__aeabi_dadd+0x204>
 8000d40:	1e6b      	subs	r3, r5, #1
 8000d42:	2b00      	cmp	r3, #0
 8000d44:	d000      	beq.n	8000d48 <__aeabi_dadd+0x54>
 8000d46:	e137      	b.n	8000fb8 <__aeabi_dadd+0x2c4>
 8000d48:	1aba      	subs	r2, r7, r2
 8000d4a:	4297      	cmp	r7, r2
 8000d4c:	41bf      	sbcs	r7, r7
 8000d4e:	1a64      	subs	r4, r4, r1
 8000d50:	427f      	negs	r7, r7
 8000d52:	1be4      	subs	r4, r4, r7
 8000d54:	2601      	movs	r6, #1
 8000d56:	0017      	movs	r7, r2
 8000d58:	e024      	b.n	8000da4 <__aeabi_dadd+0xb0>
 8000d5a:	4bc6      	ldr	r3, [pc, #792]	; (8001074 <__aeabi_dadd+0x380>)
 8000d5c:	429e      	cmp	r6, r3
 8000d5e:	d04d      	beq.n	8000dfc <__aeabi_dadd+0x108>
 8000d60:	2380      	movs	r3, #128	; 0x80
 8000d62:	041b      	lsls	r3, r3, #16
 8000d64:	4319      	orrs	r1, r3
 8000d66:	2d38      	cmp	r5, #56	; 0x38
 8000d68:	dd00      	ble.n	8000d6c <__aeabi_dadd+0x78>
 8000d6a:	e107      	b.n	8000f7c <__aeabi_dadd+0x288>
 8000d6c:	2d1f      	cmp	r5, #31
 8000d6e:	dd00      	ble.n	8000d72 <__aeabi_dadd+0x7e>
 8000d70:	e138      	b.n	8000fe4 <__aeabi_dadd+0x2f0>
 8000d72:	2020      	movs	r0, #32
 8000d74:	1b43      	subs	r3, r0, r5
 8000d76:	469a      	mov	sl, r3
 8000d78:	000b      	movs	r3, r1
 8000d7a:	4650      	mov	r0, sl
 8000d7c:	4083      	lsls	r3, r0
 8000d7e:	4699      	mov	r9, r3
 8000d80:	0013      	movs	r3, r2
 8000d82:	4648      	mov	r0, r9
 8000d84:	40eb      	lsrs	r3, r5
 8000d86:	4318      	orrs	r0, r3
 8000d88:	0003      	movs	r3, r0
 8000d8a:	4650      	mov	r0, sl
 8000d8c:	4082      	lsls	r2, r0
 8000d8e:	1e50      	subs	r0, r2, #1
 8000d90:	4182      	sbcs	r2, r0
 8000d92:	40e9      	lsrs	r1, r5
 8000d94:	431a      	orrs	r2, r3
 8000d96:	1aba      	subs	r2, r7, r2
 8000d98:	1a61      	subs	r1, r4, r1
 8000d9a:	4297      	cmp	r7, r2
 8000d9c:	41a4      	sbcs	r4, r4
 8000d9e:	0017      	movs	r7, r2
 8000da0:	4264      	negs	r4, r4
 8000da2:	1b0c      	subs	r4, r1, r4
 8000da4:	0223      	lsls	r3, r4, #8
 8000da6:	d562      	bpl.n	8000e6e <__aeabi_dadd+0x17a>
 8000da8:	0264      	lsls	r4, r4, #9
 8000daa:	0a65      	lsrs	r5, r4, #9
 8000dac:	2d00      	cmp	r5, #0
 8000dae:	d100      	bne.n	8000db2 <__aeabi_dadd+0xbe>
 8000db0:	e0df      	b.n	8000f72 <__aeabi_dadd+0x27e>
 8000db2:	0028      	movs	r0, r5
 8000db4:	f001 fd54 	bl	8002860 <__clzsi2>
 8000db8:	0003      	movs	r3, r0
 8000dba:	3b08      	subs	r3, #8
 8000dbc:	2b1f      	cmp	r3, #31
 8000dbe:	dd00      	ble.n	8000dc2 <__aeabi_dadd+0xce>
 8000dc0:	e0d2      	b.n	8000f68 <__aeabi_dadd+0x274>
 8000dc2:	2220      	movs	r2, #32
 8000dc4:	003c      	movs	r4, r7
 8000dc6:	1ad2      	subs	r2, r2, r3
 8000dc8:	409d      	lsls	r5, r3
 8000dca:	40d4      	lsrs	r4, r2
 8000dcc:	409f      	lsls	r7, r3
 8000dce:	4325      	orrs	r5, r4
 8000dd0:	429e      	cmp	r6, r3
 8000dd2:	dd00      	ble.n	8000dd6 <__aeabi_dadd+0xe2>
 8000dd4:	e0c4      	b.n	8000f60 <__aeabi_dadd+0x26c>
 8000dd6:	1b9e      	subs	r6, r3, r6
 8000dd8:	1c73      	adds	r3, r6, #1
 8000dda:	2b1f      	cmp	r3, #31
 8000ddc:	dd00      	ble.n	8000de0 <__aeabi_dadd+0xec>
 8000dde:	e0f1      	b.n	8000fc4 <__aeabi_dadd+0x2d0>
 8000de0:	2220      	movs	r2, #32
 8000de2:	0038      	movs	r0, r7
 8000de4:	0029      	movs	r1, r5
 8000de6:	1ad2      	subs	r2, r2, r3
 8000de8:	40d8      	lsrs	r0, r3
 8000dea:	4091      	lsls	r1, r2
 8000dec:	4097      	lsls	r7, r2
 8000dee:	002c      	movs	r4, r5
 8000df0:	4301      	orrs	r1, r0
 8000df2:	1e78      	subs	r0, r7, #1
 8000df4:	4187      	sbcs	r7, r0
 8000df6:	40dc      	lsrs	r4, r3
 8000df8:	2600      	movs	r6, #0
 8000dfa:	430f      	orrs	r7, r1
 8000dfc:	077b      	lsls	r3, r7, #29
 8000dfe:	d009      	beq.n	8000e14 <__aeabi_dadd+0x120>
 8000e00:	230f      	movs	r3, #15
 8000e02:	403b      	ands	r3, r7
 8000e04:	2b04      	cmp	r3, #4
 8000e06:	d005      	beq.n	8000e14 <__aeabi_dadd+0x120>
 8000e08:	1d3b      	adds	r3, r7, #4
 8000e0a:	42bb      	cmp	r3, r7
 8000e0c:	41bf      	sbcs	r7, r7
 8000e0e:	427f      	negs	r7, r7
 8000e10:	19e4      	adds	r4, r4, r7
 8000e12:	001f      	movs	r7, r3
 8000e14:	0223      	lsls	r3, r4, #8
 8000e16:	d52c      	bpl.n	8000e72 <__aeabi_dadd+0x17e>
 8000e18:	4b96      	ldr	r3, [pc, #600]	; (8001074 <__aeabi_dadd+0x380>)
 8000e1a:	3601      	adds	r6, #1
 8000e1c:	429e      	cmp	r6, r3
 8000e1e:	d100      	bne.n	8000e22 <__aeabi_dadd+0x12e>
 8000e20:	e09a      	b.n	8000f58 <__aeabi_dadd+0x264>
 8000e22:	4645      	mov	r5, r8
 8000e24:	4b94      	ldr	r3, [pc, #592]	; (8001078 <__aeabi_dadd+0x384>)
 8000e26:	08ff      	lsrs	r7, r7, #3
 8000e28:	401c      	ands	r4, r3
 8000e2a:	0760      	lsls	r0, r4, #29
 8000e2c:	0576      	lsls	r6, r6, #21
 8000e2e:	0264      	lsls	r4, r4, #9
 8000e30:	4307      	orrs	r7, r0
 8000e32:	0b24      	lsrs	r4, r4, #12
 8000e34:	0d76      	lsrs	r6, r6, #21
 8000e36:	2100      	movs	r1, #0
 8000e38:	0324      	lsls	r4, r4, #12
 8000e3a:	0b23      	lsrs	r3, r4, #12
 8000e3c:	0d0c      	lsrs	r4, r1, #20
 8000e3e:	4a8f      	ldr	r2, [pc, #572]	; (800107c <__aeabi_dadd+0x388>)
 8000e40:	0524      	lsls	r4, r4, #20
 8000e42:	431c      	orrs	r4, r3
 8000e44:	4014      	ands	r4, r2
 8000e46:	0533      	lsls	r3, r6, #20
 8000e48:	4323      	orrs	r3, r4
 8000e4a:	005b      	lsls	r3, r3, #1
 8000e4c:	07ed      	lsls	r5, r5, #31
 8000e4e:	085b      	lsrs	r3, r3, #1
 8000e50:	432b      	orrs	r3, r5
 8000e52:	0038      	movs	r0, r7
 8000e54:	0019      	movs	r1, r3
 8000e56:	bc3c      	pop	{r2, r3, r4, r5}
 8000e58:	4690      	mov	r8, r2
 8000e5a:	4699      	mov	r9, r3
 8000e5c:	46a2      	mov	sl, r4
 8000e5e:	46ab      	mov	fp, r5
 8000e60:	bdf8      	pop	{r3, r4, r5, r6, r7, pc}
 8000e62:	4664      	mov	r4, ip
 8000e64:	4304      	orrs	r4, r0
 8000e66:	d100      	bne.n	8000e6a <__aeabi_dadd+0x176>
 8000e68:	e211      	b.n	800128e <__aeabi_dadd+0x59a>
 8000e6a:	0004      	movs	r4, r0
 8000e6c:	4667      	mov	r7, ip
 8000e6e:	077b      	lsls	r3, r7, #29
 8000e70:	d1c6      	bne.n	8000e00 <__aeabi_dadd+0x10c>
 8000e72:	4645      	mov	r5, r8
 8000e74:	0760      	lsls	r0, r4, #29
 8000e76:	08ff      	lsrs	r7, r7, #3
 8000e78:	4307      	orrs	r7, r0
 8000e7a:	08e4      	lsrs	r4, r4, #3
 8000e7c:	4b7d      	ldr	r3, [pc, #500]	; (8001074 <__aeabi_dadd+0x380>)
 8000e7e:	429e      	cmp	r6, r3
 8000e80:	d030      	beq.n	8000ee4 <__aeabi_dadd+0x1f0>
 8000e82:	0324      	lsls	r4, r4, #12
 8000e84:	0576      	lsls	r6, r6, #21
 8000e86:	0b24      	lsrs	r4, r4, #12
 8000e88:	0d76      	lsrs	r6, r6, #21
 8000e8a:	e7d4      	b.n	8000e36 <__aeabi_dadd+0x142>
 8000e8c:	1a33      	subs	r3, r6, r0
 8000e8e:	469a      	mov	sl, r3
 8000e90:	2b00      	cmp	r3, #0
 8000e92:	dd78      	ble.n	8000f86 <__aeabi_dadd+0x292>
 8000e94:	2800      	cmp	r0, #0
 8000e96:	d031      	beq.n	8000efc <__aeabi_dadd+0x208>
 8000e98:	4876      	ldr	r0, [pc, #472]	; (8001074 <__aeabi_dadd+0x380>)
 8000e9a:	4286      	cmp	r6, r0
 8000e9c:	d0ae      	beq.n	8000dfc <__aeabi_dadd+0x108>
 8000e9e:	2080      	movs	r0, #128	; 0x80
 8000ea0:	0400      	lsls	r0, r0, #16
 8000ea2:	4301      	orrs	r1, r0
 8000ea4:	4653      	mov	r3, sl
 8000ea6:	2b38      	cmp	r3, #56	; 0x38
 8000ea8:	dc00      	bgt.n	8000eac <__aeabi_dadd+0x1b8>
 8000eaa:	e0e9      	b.n	8001080 <__aeabi_dadd+0x38c>
 8000eac:	430a      	orrs	r2, r1
 8000eae:	1e51      	subs	r1, r2, #1
 8000eb0:	418a      	sbcs	r2, r1
 8000eb2:	2100      	movs	r1, #0
 8000eb4:	19d2      	adds	r2, r2, r7
 8000eb6:	42ba      	cmp	r2, r7
 8000eb8:	41bf      	sbcs	r7, r7
 8000eba:	1909      	adds	r1, r1, r4
 8000ebc:	427c      	negs	r4, r7
 8000ebe:	0017      	movs	r7, r2
 8000ec0:	190c      	adds	r4, r1, r4
 8000ec2:	0223      	lsls	r3, r4, #8
 8000ec4:	d5d3      	bpl.n	8000e6e <__aeabi_dadd+0x17a>
 8000ec6:	4b6b      	ldr	r3, [pc, #428]	; (8001074 <__aeabi_dadd+0x380>)
 8000ec8:	3601      	adds	r6, #1
 8000eca:	429e      	cmp	r6, r3
 8000ecc:	d100      	bne.n	8000ed0 <__aeabi_dadd+0x1dc>
 8000ece:	e13a      	b.n	8001146 <__aeabi_dadd+0x452>
 8000ed0:	2001      	movs	r0, #1
 8000ed2:	4b69      	ldr	r3, [pc, #420]	; (8001078 <__aeabi_dadd+0x384>)
 8000ed4:	401c      	ands	r4, r3
 8000ed6:	087b      	lsrs	r3, r7, #1
 8000ed8:	4007      	ands	r7, r0
 8000eda:	431f      	orrs	r7, r3
 8000edc:	07e0      	lsls	r0, r4, #31
 8000ede:	4307      	orrs	r7, r0
 8000ee0:	0864      	lsrs	r4, r4, #1
 8000ee2:	e78b      	b.n	8000dfc <__aeabi_dadd+0x108>
 8000ee4:	0023      	movs	r3, r4
 8000ee6:	433b      	orrs	r3, r7
 8000ee8:	d100      	bne.n	8000eec <__aeabi_dadd+0x1f8>
 8000eea:	e1cb      	b.n	8001284 <__aeabi_dadd+0x590>
 8000eec:	2280      	movs	r2, #128	; 0x80
 8000eee:	0312      	lsls	r2, r2, #12
 8000ef0:	4314      	orrs	r4, r2
 8000ef2:	0324      	lsls	r4, r4, #12
 8000ef4:	0b24      	lsrs	r4, r4, #12
 8000ef6:	e79e      	b.n	8000e36 <__aeabi_dadd+0x142>
 8000ef8:	002e      	movs	r6, r5
 8000efa:	e77f      	b.n	8000dfc <__aeabi_dadd+0x108>
 8000efc:	0008      	movs	r0, r1
 8000efe:	4310      	orrs	r0, r2
 8000f00:	d100      	bne.n	8000f04 <__aeabi_dadd+0x210>
 8000f02:	e0b4      	b.n	800106e <__aeabi_dadd+0x37a>
 8000f04:	1e58      	subs	r0, r3, #1
 8000f06:	2800      	cmp	r0, #0
 8000f08:	d000      	beq.n	8000f0c <__aeabi_dadd+0x218>
 8000f0a:	e0de      	b.n	80010ca <__aeabi_dadd+0x3d6>
 8000f0c:	18ba      	adds	r2, r7, r2
 8000f0e:	42ba      	cmp	r2, r7
 8000f10:	419b      	sbcs	r3, r3
 8000f12:	1864      	adds	r4, r4, r1
 8000f14:	425b      	negs	r3, r3
 8000f16:	18e4      	adds	r4, r4, r3
 8000f18:	0017      	movs	r7, r2
 8000f1a:	2601      	movs	r6, #1
 8000f1c:	0223      	lsls	r3, r4, #8
 8000f1e:	d5a6      	bpl.n	8000e6e <__aeabi_dadd+0x17a>
 8000f20:	2602      	movs	r6, #2
 8000f22:	e7d5      	b.n	8000ed0 <__aeabi_dadd+0x1dc>
 8000f24:	2d00      	cmp	r5, #0
 8000f26:	d16e      	bne.n	8001006 <__aeabi_dadd+0x312>
 8000f28:	1c70      	adds	r0, r6, #1
 8000f2a:	0540      	lsls	r0, r0, #21
 8000f2c:	0d40      	lsrs	r0, r0, #21
 8000f2e:	2801      	cmp	r0, #1
 8000f30:	dc00      	bgt.n	8000f34 <__aeabi_dadd+0x240>
 8000f32:	e0f9      	b.n	8001128 <__aeabi_dadd+0x434>
 8000f34:	1ab8      	subs	r0, r7, r2
 8000f36:	4684      	mov	ip, r0
 8000f38:	4287      	cmp	r7, r0
 8000f3a:	4180      	sbcs	r0, r0
 8000f3c:	1ae5      	subs	r5, r4, r3
 8000f3e:	4240      	negs	r0, r0
 8000f40:	1a2d      	subs	r5, r5, r0
 8000f42:	0228      	lsls	r0, r5, #8
 8000f44:	d400      	bmi.n	8000f48 <__aeabi_dadd+0x254>
 8000f46:	e089      	b.n	800105c <__aeabi_dadd+0x368>
 8000f48:	1bd7      	subs	r7, r2, r7
 8000f4a:	42ba      	cmp	r2, r7
 8000f4c:	4192      	sbcs	r2, r2
 8000f4e:	1b1c      	subs	r4, r3, r4
 8000f50:	4252      	negs	r2, r2
 8000f52:	1aa5      	subs	r5, r4, r2
 8000f54:	46d8      	mov	r8, fp
 8000f56:	e729      	b.n	8000dac <__aeabi_dadd+0xb8>
 8000f58:	4645      	mov	r5, r8
 8000f5a:	2400      	movs	r4, #0
 8000f5c:	2700      	movs	r7, #0
 8000f5e:	e76a      	b.n	8000e36 <__aeabi_dadd+0x142>
 8000f60:	4c45      	ldr	r4, [pc, #276]	; (8001078 <__aeabi_dadd+0x384>)
 8000f62:	1af6      	subs	r6, r6, r3
 8000f64:	402c      	ands	r4, r5
 8000f66:	e749      	b.n	8000dfc <__aeabi_dadd+0x108>
 8000f68:	003d      	movs	r5, r7
 8000f6a:	3828      	subs	r0, #40	; 0x28
 8000f6c:	4085      	lsls	r5, r0
 8000f6e:	2700      	movs	r7, #0
 8000f70:	e72e      	b.n	8000dd0 <__aeabi_dadd+0xdc>
 8000f72:	0038      	movs	r0, r7
 8000f74:	f001 fc74 	bl	8002860 <__clzsi2>
 8000f78:	3020      	adds	r0, #32
 8000f7a:	e71d      	b.n	8000db8 <__aeabi_dadd+0xc4>
 8000f7c:	430a      	orrs	r2, r1
 8000f7e:	1e51      	subs	r1, r2, #1
 8000f80:	418a      	sbcs	r2, r1
 8000f82:	2100      	movs	r1, #0
 8000f84:	e707      	b.n	8000d96 <__aeabi_dadd+0xa2>
 8000f86:	2b00      	cmp	r3, #0
 8000f88:	d000      	beq.n	8000f8c <__aeabi_dadd+0x298>
 8000f8a:	e0f3      	b.n	8001174 <__aeabi_dadd+0x480>
 8000f8c:	1c70      	adds	r0, r6, #1
 8000f8e:	0543      	lsls	r3, r0, #21
 8000f90:	0d5b      	lsrs	r3, r3, #21
 8000f92:	2b01      	cmp	r3, #1
 8000f94:	dc00      	bgt.n	8000f98 <__aeabi_dadd+0x2a4>
 8000f96:	e0ad      	b.n	80010f4 <__aeabi_dadd+0x400>
 8000f98:	4b36      	ldr	r3, [pc, #216]	; (8001074 <__aeabi_dadd+0x380>)
 8000f9a:	4298      	cmp	r0, r3
 8000f9c:	d100      	bne.n	8000fa0 <__aeabi_dadd+0x2ac>
 8000f9e:	e0d1      	b.n	8001144 <__aeabi_dadd+0x450>
 8000fa0:	18ba      	adds	r2, r7, r2
 8000fa2:	42ba      	cmp	r2, r7
 8000fa4:	41bf      	sbcs	r7, r7
 8000fa6:	1864      	adds	r4, r4, r1
 8000fa8:	427f      	negs	r7, r7
 8000faa:	19e4      	adds	r4, r4, r7
 8000fac:	07e7      	lsls	r7, r4, #31
 8000fae:	0852      	lsrs	r2, r2, #1
 8000fb0:	4317      	orrs	r7, r2
 8000fb2:	0864      	lsrs	r4, r4, #1
 8000fb4:	0006      	movs	r6, r0
 8000fb6:	e721      	b.n	8000dfc <__aeabi_dadd+0x108>
 8000fb8:	482e      	ldr	r0, [pc, #184]	; (8001074 <__aeabi_dadd+0x380>)
 8000fba:	4285      	cmp	r5, r0
 8000fbc:	d100      	bne.n	8000fc0 <__aeabi_dadd+0x2cc>
 8000fbe:	e093      	b.n	80010e8 <__aeabi_dadd+0x3f4>
 8000fc0:	001d      	movs	r5, r3
 8000fc2:	e6d0      	b.n	8000d66 <__aeabi_dadd+0x72>
 8000fc4:	0029      	movs	r1, r5
 8000fc6:	3e1f      	subs	r6, #31
 8000fc8:	40f1      	lsrs	r1, r6
 8000fca:	2b20      	cmp	r3, #32
 8000fcc:	d100      	bne.n	8000fd0 <__aeabi_dadd+0x2dc>
 8000fce:	e08d      	b.n	80010ec <__aeabi_dadd+0x3f8>
 8000fd0:	2240      	movs	r2, #64	; 0x40
 8000fd2:	1ad3      	subs	r3, r2, r3
 8000fd4:	409d      	lsls	r5, r3
 8000fd6:	432f      	orrs	r7, r5
 8000fd8:	1e7d      	subs	r5, r7, #1
 8000fda:	41af      	sbcs	r7, r5
 8000fdc:	2400      	movs	r4, #0
 8000fde:	430f      	orrs	r7, r1
 8000fe0:	2600      	movs	r6, #0
 8000fe2:	e744      	b.n	8000e6e <__aeabi_dadd+0x17a>
 8000fe4:	002b      	movs	r3, r5
 8000fe6:	0008      	movs	r0, r1
 8000fe8:	3b20      	subs	r3, #32
 8000fea:	40d8      	lsrs	r0, r3
 8000fec:	0003      	movs	r3, r0
 8000fee:	2d20      	cmp	r5, #32
 8000ff0:	d100      	bne.n	8000ff4 <__aeabi_dadd+0x300>
 8000ff2:	e07d      	b.n	80010f0 <__aeabi_dadd+0x3fc>
 8000ff4:	2040      	movs	r0, #64	; 0x40
 8000ff6:	1b45      	subs	r5, r0, r5
 8000ff8:	40a9      	lsls	r1, r5
 8000ffa:	430a      	orrs	r2, r1
 8000ffc:	1e51      	subs	r1, r2, #1
 8000ffe:	418a      	sbcs	r2, r1
 8001000:	2100      	movs	r1, #0
 8001002:	431a      	orrs	r2, r3
 8001004:	e6c7      	b.n	8000d96 <__aeabi_dadd+0xa2>
 8001006:	2e00      	cmp	r6, #0
 8001008:	d050      	beq.n	80010ac <__aeabi_dadd+0x3b8>
 800100a:	4e1a      	ldr	r6, [pc, #104]	; (8001074 <__aeabi_dadd+0x380>)
 800100c:	42b0      	cmp	r0, r6
 800100e:	d057      	beq.n	80010c0 <__aeabi_dadd+0x3cc>
 8001010:	2680      	movs	r6, #128	; 0x80
 8001012:	426b      	negs	r3, r5
 8001014:	4699      	mov	r9, r3
 8001016:	0436      	lsls	r6, r6, #16
 8001018:	4334      	orrs	r4, r6
 800101a:	464b      	mov	r3, r9
 800101c:	2b38      	cmp	r3, #56	; 0x38
 800101e:	dd00      	ble.n	8001022 <__aeabi_dadd+0x32e>
 8001020:	e0d6      	b.n	80011d0 <__aeabi_dadd+0x4dc>
 8001022:	2b1f      	cmp	r3, #31
 8001024:	dd00      	ble.n	8001028 <__aeabi_dadd+0x334>
 8001026:	e135      	b.n	8001294 <__aeabi_dadd+0x5a0>
 8001028:	2620      	movs	r6, #32
 800102a:	1af5      	subs	r5, r6, r3
 800102c:	0026      	movs	r6, r4
 800102e:	40ae      	lsls	r6, r5
 8001030:	46b2      	mov	sl, r6
 8001032:	003e      	movs	r6, r7
 8001034:	40de      	lsrs	r6, r3
 8001036:	46ac      	mov	ip, r5
 8001038:	0035      	movs	r5, r6
 800103a:	4656      	mov	r6, sl
 800103c:	432e      	orrs	r6, r5
 800103e:	4665      	mov	r5, ip
 8001040:	40af      	lsls	r7, r5
 8001042:	1e7d      	subs	r5, r7, #1
 8001044:	41af      	sbcs	r7, r5
 8001046:	40dc      	lsrs	r4, r3
 8001048:	4337      	orrs	r7, r6
 800104a:	1bd7      	subs	r7, r2, r7
 800104c:	42ba      	cmp	r2, r7
 800104e:	4192      	sbcs	r2, r2
 8001050:	1b0c      	subs	r4, r1, r4
 8001052:	4252      	negs	r2, r2
 8001054:	1aa4      	subs	r4, r4, r2
 8001056:	0006      	movs	r6, r0
 8001058:	46d8      	mov	r8, fp
 800105a:	e6a3      	b.n	8000da4 <__aeabi_dadd+0xb0>
 800105c:	4664      	mov	r4, ip
 800105e:	4667      	mov	r7, ip
 8001060:	432c      	orrs	r4, r5
 8001062:	d000      	beq.n	8001066 <__aeabi_dadd+0x372>
 8001064:	e6a2      	b.n	8000dac <__aeabi_dadd+0xb8>
 8001066:	2500      	movs	r5, #0
 8001068:	2600      	movs	r6, #0
 800106a:	2700      	movs	r7, #0
 800106c:	e706      	b.n	8000e7c <__aeabi_dadd+0x188>
 800106e:	001e      	movs	r6, r3
 8001070:	e6c4      	b.n	8000dfc <__aeabi_dadd+0x108>
 8001072:	46c0      	nop			; (mov r8, r8)
 8001074:	000007ff 	.word	0x000007ff
 8001078:	ff7fffff 	.word	0xff7fffff
 800107c:	800fffff 	.word	0x800fffff
 8001080:	2b1f      	cmp	r3, #31
 8001082:	dc63      	bgt.n	800114c <__aeabi_dadd+0x458>
 8001084:	2020      	movs	r0, #32
 8001086:	1ac3      	subs	r3, r0, r3
 8001088:	0008      	movs	r0, r1
 800108a:	4098      	lsls	r0, r3
 800108c:	469c      	mov	ip, r3
 800108e:	4683      	mov	fp, r0
 8001090:	4653      	mov	r3, sl
 8001092:	0010      	movs	r0, r2
 8001094:	40d8      	lsrs	r0, r3
 8001096:	0003      	movs	r3, r0
 8001098:	4658      	mov	r0, fp
 800109a:	4318      	orrs	r0, r3
 800109c:	4663      	mov	r3, ip
 800109e:	409a      	lsls	r2, r3
 80010a0:	1e53      	subs	r3, r2, #1
 80010a2:	419a      	sbcs	r2, r3
 80010a4:	4653      	mov	r3, sl
 80010a6:	4302      	orrs	r2, r0
 80010a8:	40d9      	lsrs	r1, r3
 80010aa:	e703      	b.n	8000eb4 <__aeabi_dadd+0x1c0>
 80010ac:	0026      	movs	r6, r4
 80010ae:	433e      	orrs	r6, r7
 80010b0:	d006      	beq.n	80010c0 <__aeabi_dadd+0x3cc>
 80010b2:	43eb      	mvns	r3, r5
 80010b4:	4699      	mov	r9, r3
 80010b6:	2b00      	cmp	r3, #0
 80010b8:	d0c7      	beq.n	800104a <__aeabi_dadd+0x356>
 80010ba:	4e94      	ldr	r6, [pc, #592]	; (800130c <__aeabi_dadd+0x618>)
 80010bc:	42b0      	cmp	r0, r6
 80010be:	d1ac      	bne.n	800101a <__aeabi_dadd+0x326>
 80010c0:	000c      	movs	r4, r1
 80010c2:	0017      	movs	r7, r2
 80010c4:	0006      	movs	r6, r0
 80010c6:	46d8      	mov	r8, fp
 80010c8:	e698      	b.n	8000dfc <__aeabi_dadd+0x108>
 80010ca:	4b90      	ldr	r3, [pc, #576]	; (800130c <__aeabi_dadd+0x618>)
 80010cc:	459a      	cmp	sl, r3
 80010ce:	d00b      	beq.n	80010e8 <__aeabi_dadd+0x3f4>
 80010d0:	4682      	mov	sl, r0
 80010d2:	e6e7      	b.n	8000ea4 <__aeabi_dadd+0x1b0>
 80010d4:	2800      	cmp	r0, #0
 80010d6:	d000      	beq.n	80010da <__aeabi_dadd+0x3e6>
 80010d8:	e09e      	b.n	8001218 <__aeabi_dadd+0x524>
 80010da:	0018      	movs	r0, r3
 80010dc:	4310      	orrs	r0, r2
 80010de:	d100      	bne.n	80010e2 <__aeabi_dadd+0x3ee>
 80010e0:	e0e9      	b.n	80012b6 <__aeabi_dadd+0x5c2>
 80010e2:	001c      	movs	r4, r3
 80010e4:	0017      	movs	r7, r2
 80010e6:	46d8      	mov	r8, fp
 80010e8:	4e88      	ldr	r6, [pc, #544]	; (800130c <__aeabi_dadd+0x618>)
 80010ea:	e687      	b.n	8000dfc <__aeabi_dadd+0x108>
 80010ec:	2500      	movs	r5, #0
 80010ee:	e772      	b.n	8000fd6 <__aeabi_dadd+0x2e2>
 80010f0:	2100      	movs	r1, #0
 80010f2:	e782      	b.n	8000ffa <__aeabi_dadd+0x306>
 80010f4:	0023      	movs	r3, r4
 80010f6:	433b      	orrs	r3, r7
 80010f8:	2e00      	cmp	r6, #0
 80010fa:	d000      	beq.n	80010fe <__aeabi_dadd+0x40a>
 80010fc:	e0ab      	b.n	8001256 <__aeabi_dadd+0x562>
 80010fe:	2b00      	cmp	r3, #0
 8001100:	d100      	bne.n	8001104 <__aeabi_dadd+0x410>
 8001102:	e0e7      	b.n	80012d4 <__aeabi_dadd+0x5e0>
 8001104:	000b      	movs	r3, r1
 8001106:	4313      	orrs	r3, r2
 8001108:	d100      	bne.n	800110c <__aeabi_dadd+0x418>
 800110a:	e677      	b.n	8000dfc <__aeabi_dadd+0x108>
 800110c:	18ba      	adds	r2, r7, r2
 800110e:	42ba      	cmp	r2, r7
 8001110:	41bf      	sbcs	r7, r7
 8001112:	1864      	adds	r4, r4, r1
 8001114:	427f      	negs	r7, r7
 8001116:	19e4      	adds	r4, r4, r7
 8001118:	0223      	lsls	r3, r4, #8
 800111a:	d400      	bmi.n	800111e <__aeabi_dadd+0x42a>
 800111c:	e0f2      	b.n	8001304 <__aeabi_dadd+0x610>
 800111e:	4b7c      	ldr	r3, [pc, #496]	; (8001310 <__aeabi_dadd+0x61c>)
 8001120:	0017      	movs	r7, r2
 8001122:	401c      	ands	r4, r3
 8001124:	0006      	movs	r6, r0
 8001126:	e669      	b.n	8000dfc <__aeabi_dadd+0x108>
 8001128:	0020      	movs	r0, r4
 800112a:	4338      	orrs	r0, r7
 800112c:	2e00      	cmp	r6, #0
 800112e:	d1d1      	bne.n	80010d4 <__aeabi_dadd+0x3e0>
 8001130:	2800      	cmp	r0, #0
 8001132:	d15b      	bne.n	80011ec <__aeabi_dadd+0x4f8>
 8001134:	001c      	movs	r4, r3
 8001136:	4314      	orrs	r4, r2
 8001138:	d100      	bne.n	800113c <__aeabi_dadd+0x448>
 800113a:	e0a8      	b.n	800128e <__aeabi_dadd+0x59a>
 800113c:	001c      	movs	r4, r3
 800113e:	0017      	movs	r7, r2
 8001140:	46d8      	mov	r8, fp
 8001142:	e65b      	b.n	8000dfc <__aeabi_dadd+0x108>
 8001144:	0006      	movs	r6, r0
 8001146:	2400      	movs	r4, #0
 8001148:	2700      	movs	r7, #0
 800114a:	e697      	b.n	8000e7c <__aeabi_dadd+0x188>
 800114c:	4650      	mov	r0, sl
 800114e:	000b      	movs	r3, r1
 8001150:	3820      	subs	r0, #32
 8001152:	40c3      	lsrs	r3, r0
 8001154:	4699      	mov	r9, r3
 8001156:	4653      	mov	r3, sl
 8001158:	2b20      	cmp	r3, #32
 800115a:	d100      	bne.n	800115e <__aeabi_dadd+0x46a>
 800115c:	e095      	b.n	800128a <__aeabi_dadd+0x596>
 800115e:	2340      	movs	r3, #64	; 0x40
 8001160:	4650      	mov	r0, sl
 8001162:	1a1b      	subs	r3, r3, r0
 8001164:	4099      	lsls	r1, r3
 8001166:	430a      	orrs	r2, r1
 8001168:	1e51      	subs	r1, r2, #1
 800116a:	418a      	sbcs	r2, r1
 800116c:	464b      	mov	r3, r9
 800116e:	2100      	movs	r1, #0
 8001170:	431a      	orrs	r2, r3
 8001172:	e69f      	b.n	8000eb4 <__aeabi_dadd+0x1c0>
 8001174:	2e00      	cmp	r6, #0
 8001176:	d130      	bne.n	80011da <__aeabi_dadd+0x4e6>
 8001178:	0026      	movs	r6, r4
 800117a:	433e      	orrs	r6, r7
 800117c:	d067      	beq.n	800124e <__aeabi_dadd+0x55a>
 800117e:	43db      	mvns	r3, r3
 8001180:	469a      	mov	sl, r3
 8001182:	2b00      	cmp	r3, #0
 8001184:	d01c      	beq.n	80011c0 <__aeabi_dadd+0x4cc>
 8001186:	4e61      	ldr	r6, [pc, #388]	; (800130c <__aeabi_dadd+0x618>)
 8001188:	42b0      	cmp	r0, r6
 800118a:	d060      	beq.n	800124e <__aeabi_dadd+0x55a>
 800118c:	4653      	mov	r3, sl
 800118e:	2b38      	cmp	r3, #56	; 0x38
 8001190:	dd00      	ble.n	8001194 <__aeabi_dadd+0x4a0>
 8001192:	e096      	b.n	80012c2 <__aeabi_dadd+0x5ce>
 8001194:	2b1f      	cmp	r3, #31
 8001196:	dd00      	ble.n	800119a <__aeabi_dadd+0x4a6>
 8001198:	e09f      	b.n	80012da <__aeabi_dadd+0x5e6>
 800119a:	2620      	movs	r6, #32
 800119c:	1af3      	subs	r3, r6, r3
 800119e:	0026      	movs	r6, r4
 80011a0:	409e      	lsls	r6, r3
 80011a2:	469c      	mov	ip, r3
 80011a4:	46b3      	mov	fp, r6
 80011a6:	4653      	mov	r3, sl
 80011a8:	003e      	movs	r6, r7
 80011aa:	40de      	lsrs	r6, r3
 80011ac:	0033      	movs	r3, r6
 80011ae:	465e      	mov	r6, fp
 80011b0:	431e      	orrs	r6, r3
 80011b2:	4663      	mov	r3, ip
 80011b4:	409f      	lsls	r7, r3
 80011b6:	1e7b      	subs	r3, r7, #1
 80011b8:	419f      	sbcs	r7, r3
 80011ba:	4653      	mov	r3, sl
 80011bc:	40dc      	lsrs	r4, r3
 80011be:	4337      	orrs	r7, r6
 80011c0:	18bf      	adds	r7, r7, r2
 80011c2:	4297      	cmp	r7, r2
 80011c4:	4192      	sbcs	r2, r2
 80011c6:	1864      	adds	r4, r4, r1
 80011c8:	4252      	negs	r2, r2
 80011ca:	18a4      	adds	r4, r4, r2
 80011cc:	0006      	movs	r6, r0
 80011ce:	e678      	b.n	8000ec2 <__aeabi_dadd+0x1ce>
 80011d0:	4327      	orrs	r7, r4
 80011d2:	1e7c      	subs	r4, r7, #1
 80011d4:	41a7      	sbcs	r7, r4
 80011d6:	2400      	movs	r4, #0
 80011d8:	e737      	b.n	800104a <__aeabi_dadd+0x356>
 80011da:	4e4c      	ldr	r6, [pc, #304]	; (800130c <__aeabi_dadd+0x618>)
 80011dc:	42b0      	cmp	r0, r6
 80011de:	d036      	beq.n	800124e <__aeabi_dadd+0x55a>
 80011e0:	2680      	movs	r6, #128	; 0x80
 80011e2:	425b      	negs	r3, r3
 80011e4:	0436      	lsls	r6, r6, #16
 80011e6:	469a      	mov	sl, r3
 80011e8:	4334      	orrs	r4, r6
 80011ea:	e7cf      	b.n	800118c <__aeabi_dadd+0x498>
 80011ec:	0018      	movs	r0, r3
 80011ee:	4310      	orrs	r0, r2
 80011f0:	d100      	bne.n	80011f4 <__aeabi_dadd+0x500>
 80011f2:	e603      	b.n	8000dfc <__aeabi_dadd+0x108>
 80011f4:	1ab8      	subs	r0, r7, r2
 80011f6:	4684      	mov	ip, r0
 80011f8:	4567      	cmp	r7, ip
 80011fa:	41ad      	sbcs	r5, r5
 80011fc:	1ae0      	subs	r0, r4, r3
 80011fe:	426d      	negs	r5, r5
 8001200:	1b40      	subs	r0, r0, r5
 8001202:	0205      	lsls	r5, r0, #8
 8001204:	d400      	bmi.n	8001208 <__aeabi_dadd+0x514>
 8001206:	e62c      	b.n	8000e62 <__aeabi_dadd+0x16e>
 8001208:	1bd7      	subs	r7, r2, r7
 800120a:	42ba      	cmp	r2, r7
 800120c:	4192      	sbcs	r2, r2
 800120e:	1b1c      	subs	r4, r3, r4
 8001210:	4252      	negs	r2, r2
 8001212:	1aa4      	subs	r4, r4, r2
 8001214:	46d8      	mov	r8, fp
 8001216:	e5f1      	b.n	8000dfc <__aeabi_dadd+0x108>
 8001218:	0018      	movs	r0, r3
 800121a:	4310      	orrs	r0, r2
 800121c:	d100      	bne.n	8001220 <__aeabi_dadd+0x52c>
 800121e:	e763      	b.n	80010e8 <__aeabi_dadd+0x3f4>
 8001220:	08f8      	lsrs	r0, r7, #3
 8001222:	0767      	lsls	r7, r4, #29
 8001224:	4307      	orrs	r7, r0
 8001226:	2080      	movs	r0, #128	; 0x80
 8001228:	08e4      	lsrs	r4, r4, #3
 800122a:	0300      	lsls	r0, r0, #12
 800122c:	4204      	tst	r4, r0
 800122e:	d008      	beq.n	8001242 <__aeabi_dadd+0x54e>
 8001230:	08dd      	lsrs	r5, r3, #3
 8001232:	4205      	tst	r5, r0
 8001234:	d105      	bne.n	8001242 <__aeabi_dadd+0x54e>
 8001236:	08d2      	lsrs	r2, r2, #3
 8001238:	0759      	lsls	r1, r3, #29
 800123a:	4311      	orrs	r1, r2
 800123c:	000f      	movs	r7, r1
 800123e:	002c      	movs	r4, r5
 8001240:	46d8      	mov	r8, fp
 8001242:	0f7b      	lsrs	r3, r7, #29
 8001244:	00e4      	lsls	r4, r4, #3
 8001246:	431c      	orrs	r4, r3
 8001248:	00ff      	lsls	r7, r7, #3
 800124a:	4e30      	ldr	r6, [pc, #192]	; (800130c <__aeabi_dadd+0x618>)
 800124c:	e5d6      	b.n	8000dfc <__aeabi_dadd+0x108>
 800124e:	000c      	movs	r4, r1
 8001250:	0017      	movs	r7, r2
 8001252:	0006      	movs	r6, r0
 8001254:	e5d2      	b.n	8000dfc <__aeabi_dadd+0x108>
 8001256:	2b00      	cmp	r3, #0
 8001258:	d038      	beq.n	80012cc <__aeabi_dadd+0x5d8>
 800125a:	000b      	movs	r3, r1
 800125c:	4313      	orrs	r3, r2
 800125e:	d100      	bne.n	8001262 <__aeabi_dadd+0x56e>
 8001260:	e742      	b.n	80010e8 <__aeabi_dadd+0x3f4>
 8001262:	08f8      	lsrs	r0, r7, #3
 8001264:	0767      	lsls	r7, r4, #29
 8001266:	4307      	orrs	r7, r0
 8001268:	2080      	movs	r0, #128	; 0x80
 800126a:	08e4      	lsrs	r4, r4, #3
 800126c:	0300      	lsls	r0, r0, #12
 800126e:	4204      	tst	r4, r0
 8001270:	d0e7      	beq.n	8001242 <__aeabi_dadd+0x54e>
 8001272:	08cb      	lsrs	r3, r1, #3
 8001274:	4203      	tst	r3, r0
 8001276:	d1e4      	bne.n	8001242 <__aeabi_dadd+0x54e>
 8001278:	08d2      	lsrs	r2, r2, #3
 800127a:	0749      	lsls	r1, r1, #29
 800127c:	4311      	orrs	r1, r2
 800127e:	000f      	movs	r7, r1
 8001280:	001c      	movs	r4, r3
 8001282:	e7de      	b.n	8001242 <__aeabi_dadd+0x54e>
 8001284:	2700      	movs	r7, #0
 8001286:	2400      	movs	r4, #0
 8001288:	e5d5      	b.n	8000e36 <__aeabi_dadd+0x142>
 800128a:	2100      	movs	r1, #0
 800128c:	e76b      	b.n	8001166 <__aeabi_dadd+0x472>
 800128e:	2500      	movs	r5, #0
 8001290:	2700      	movs	r7, #0
 8001292:	e5f3      	b.n	8000e7c <__aeabi_dadd+0x188>
 8001294:	464e      	mov	r6, r9
 8001296:	0025      	movs	r5, r4
 8001298:	3e20      	subs	r6, #32
 800129a:	40f5      	lsrs	r5, r6
 800129c:	464b      	mov	r3, r9
 800129e:	002e      	movs	r6, r5
 80012a0:	2b20      	cmp	r3, #32
 80012a2:	d02d      	beq.n	8001300 <__aeabi_dadd+0x60c>
 80012a4:	2540      	movs	r5, #64	; 0x40
 80012a6:	1aed      	subs	r5, r5, r3
 80012a8:	40ac      	lsls	r4, r5
 80012aa:	4327      	orrs	r7, r4
 80012ac:	1e7c      	subs	r4, r7, #1
 80012ae:	41a7      	sbcs	r7, r4
 80012b0:	2400      	movs	r4, #0
 80012b2:	4337      	orrs	r7, r6
 80012b4:	e6c9      	b.n	800104a <__aeabi_dadd+0x356>
 80012b6:	2480      	movs	r4, #128	; 0x80
 80012b8:	2500      	movs	r5, #0
 80012ba:	0324      	lsls	r4, r4, #12
 80012bc:	4e13      	ldr	r6, [pc, #76]	; (800130c <__aeabi_dadd+0x618>)
 80012be:	2700      	movs	r7, #0
 80012c0:	e5dc      	b.n	8000e7c <__aeabi_dadd+0x188>
 80012c2:	4327      	orrs	r7, r4
 80012c4:	1e7c      	subs	r4, r7, #1
 80012c6:	41a7      	sbcs	r7, r4
 80012c8:	2400      	movs	r4, #0
 80012ca:	e779      	b.n	80011c0 <__aeabi_dadd+0x4cc>
 80012cc:	000c      	movs	r4, r1
 80012ce:	0017      	movs	r7, r2
 80012d0:	4e0e      	ldr	r6, [pc, #56]	; (800130c <__aeabi_dadd+0x618>)
 80012d2:	e593      	b.n	8000dfc <__aeabi_dadd+0x108>
 80012d4:	000c      	movs	r4, r1
 80012d6:	0017      	movs	r7, r2
 80012d8:	e590      	b.n	8000dfc <__aeabi_dadd+0x108>
 80012da:	4656      	mov	r6, sl
 80012dc:	0023      	movs	r3, r4
 80012de:	3e20      	subs	r6, #32
 80012e0:	40f3      	lsrs	r3, r6
 80012e2:	4699      	mov	r9, r3
 80012e4:	4653      	mov	r3, sl
 80012e6:	2b20      	cmp	r3, #32
 80012e8:	d00e      	beq.n	8001308 <__aeabi_dadd+0x614>
 80012ea:	2340      	movs	r3, #64	; 0x40
 80012ec:	4656      	mov	r6, sl
 80012ee:	1b9b      	subs	r3, r3, r6
 80012f0:	409c      	lsls	r4, r3
 80012f2:	4327      	orrs	r7, r4
 80012f4:	1e7c      	subs	r4, r7, #1
 80012f6:	41a7      	sbcs	r7, r4
 80012f8:	464b      	mov	r3, r9
 80012fa:	2400      	movs	r4, #0
 80012fc:	431f      	orrs	r7, r3
 80012fe:	e75f      	b.n	80011c0 <__aeabi_dadd+0x4cc>
 8001300:	2400      	movs	r4, #0
 8001302:	e7d2      	b.n	80012aa <__aeabi_dadd+0x5b6>
 8001304:	0017      	movs	r7, r2
 8001306:	e5b2      	b.n	8000e6e <__aeabi_dadd+0x17a>
 8001308:	2400      	movs	r4, #0
 800130a:	e7f2      	b.n	80012f2 <__aeabi_dadd+0x5fe>
 800130c:	000007ff 	.word	0x000007ff
 8001310:	ff7fffff 	.word	0xff7fffff

08001314 <__aeabi_ddiv>:
 8001314:	b5f0      	push	{r4, r5, r6, r7, lr}
 8001316:	4657      	mov	r7, sl
 8001318:	4645      	mov	r5, r8
 800131a:	46de      	mov	lr, fp
 800131c:	464e      	mov	r6, r9
 800131e:	b5e0      	push	{r5, r6, r7, lr}
 8001320:	004c      	lsls	r4, r1, #1
 8001322:	030e      	lsls	r6, r1, #12
 8001324:	b087      	sub	sp, #28
 8001326:	4683      	mov	fp, r0
 8001328:	4692      	mov	sl, r2
 800132a:	001d      	movs	r5, r3
 800132c:	4680      	mov	r8, r0
 800132e:	0b36      	lsrs	r6, r6, #12
 8001330:	0d64      	lsrs	r4, r4, #21
 8001332:	0fcf      	lsrs	r7, r1, #31
 8001334:	2c00      	cmp	r4, #0
 8001336:	d04f      	beq.n	80013d8 <__aeabi_ddiv+0xc4>
 8001338:	4b6f      	ldr	r3, [pc, #444]	; (80014f8 <__aeabi_ddiv+0x1e4>)
 800133a:	429c      	cmp	r4, r3
 800133c:	d035      	beq.n	80013aa <__aeabi_ddiv+0x96>
 800133e:	2380      	movs	r3, #128	; 0x80
 8001340:	0f42      	lsrs	r2, r0, #29
 8001342:	041b      	lsls	r3, r3, #16
 8001344:	00f6      	lsls	r6, r6, #3
 8001346:	4313      	orrs	r3, r2
 8001348:	4333      	orrs	r3, r6
 800134a:	4699      	mov	r9, r3
 800134c:	00c3      	lsls	r3, r0, #3
 800134e:	4698      	mov	r8, r3
 8001350:	4b6a      	ldr	r3, [pc, #424]	; (80014fc <__aeabi_ddiv+0x1e8>)
 8001352:	2600      	movs	r6, #0
 8001354:	469c      	mov	ip, r3
 8001356:	2300      	movs	r3, #0
 8001358:	4464      	add	r4, ip
 800135a:	9303      	str	r3, [sp, #12]
 800135c:	032b      	lsls	r3, r5, #12
 800135e:	0b1b      	lsrs	r3, r3, #12
 8001360:	469b      	mov	fp, r3
 8001362:	006b      	lsls	r3, r5, #1
 8001364:	0fed      	lsrs	r5, r5, #31
 8001366:	4650      	mov	r0, sl
 8001368:	0d5b      	lsrs	r3, r3, #21
 800136a:	9501      	str	r5, [sp, #4]
 800136c:	d05e      	beq.n	800142c <__aeabi_ddiv+0x118>
 800136e:	4a62      	ldr	r2, [pc, #392]	; (80014f8 <__aeabi_ddiv+0x1e4>)
 8001370:	4293      	cmp	r3, r2
 8001372:	d053      	beq.n	800141c <__aeabi_ddiv+0x108>
 8001374:	465a      	mov	r2, fp
 8001376:	00d1      	lsls	r1, r2, #3
 8001378:	2280      	movs	r2, #128	; 0x80
 800137a:	0f40      	lsrs	r0, r0, #29
 800137c:	0412      	lsls	r2, r2, #16
 800137e:	4302      	orrs	r2, r0
 8001380:	430a      	orrs	r2, r1
 8001382:	4693      	mov	fp, r2
 8001384:	4652      	mov	r2, sl
 8001386:	00d1      	lsls	r1, r2, #3
 8001388:	4a5c      	ldr	r2, [pc, #368]	; (80014fc <__aeabi_ddiv+0x1e8>)
 800138a:	4694      	mov	ip, r2
 800138c:	2200      	movs	r2, #0
 800138e:	4463      	add	r3, ip
 8001390:	0038      	movs	r0, r7
 8001392:	4068      	eors	r0, r5
 8001394:	4684      	mov	ip, r0
 8001396:	9002      	str	r0, [sp, #8]
 8001398:	1ae4      	subs	r4, r4, r3
 800139a:	4316      	orrs	r6, r2
 800139c:	2e0f      	cmp	r6, #15
 800139e:	d900      	bls.n	80013a2 <__aeabi_ddiv+0x8e>
 80013a0:	e0b4      	b.n	800150c <__aeabi_ddiv+0x1f8>
 80013a2:	4b57      	ldr	r3, [pc, #348]	; (8001500 <__aeabi_ddiv+0x1ec>)
 80013a4:	00b6      	lsls	r6, r6, #2
 80013a6:	599b      	ldr	r3, [r3, r6]
 80013a8:	469f      	mov	pc, r3
 80013aa:	0003      	movs	r3, r0
 80013ac:	4333      	orrs	r3, r6
 80013ae:	4699      	mov	r9, r3
 80013b0:	d16c      	bne.n	800148c <__aeabi_ddiv+0x178>
 80013b2:	2300      	movs	r3, #0
 80013b4:	4698      	mov	r8, r3
 80013b6:	3302      	adds	r3, #2
 80013b8:	2608      	movs	r6, #8
 80013ba:	9303      	str	r3, [sp, #12]
 80013bc:	e7ce      	b.n	800135c <__aeabi_ddiv+0x48>
 80013be:	46cb      	mov	fp, r9
 80013c0:	4641      	mov	r1, r8
 80013c2:	9a03      	ldr	r2, [sp, #12]
 80013c4:	9701      	str	r7, [sp, #4]
 80013c6:	2a02      	cmp	r2, #2
 80013c8:	d165      	bne.n	8001496 <__aeabi_ddiv+0x182>
 80013ca:	9b01      	ldr	r3, [sp, #4]
 80013cc:	4c4a      	ldr	r4, [pc, #296]	; (80014f8 <__aeabi_ddiv+0x1e4>)
 80013ce:	469c      	mov	ip, r3
 80013d0:	2300      	movs	r3, #0
 80013d2:	2200      	movs	r2, #0
 80013d4:	4698      	mov	r8, r3
 80013d6:	e06b      	b.n	80014b0 <__aeabi_ddiv+0x19c>
 80013d8:	0003      	movs	r3, r0
 80013da:	4333      	orrs	r3, r6
 80013dc:	4699      	mov	r9, r3
 80013de:	d04e      	beq.n	800147e <__aeabi_ddiv+0x16a>
 80013e0:	2e00      	cmp	r6, #0
 80013e2:	d100      	bne.n	80013e6 <__aeabi_ddiv+0xd2>
 80013e4:	e1bc      	b.n	8001760 <__aeabi_ddiv+0x44c>
 80013e6:	0030      	movs	r0, r6
 80013e8:	f001 fa3a 	bl	8002860 <__clzsi2>
 80013ec:	0003      	movs	r3, r0
 80013ee:	3b0b      	subs	r3, #11
 80013f0:	2b1c      	cmp	r3, #28
 80013f2:	dd00      	ble.n	80013f6 <__aeabi_ddiv+0xe2>
 80013f4:	e1ac      	b.n	8001750 <__aeabi_ddiv+0x43c>
 80013f6:	221d      	movs	r2, #29
 80013f8:	1ad3      	subs	r3, r2, r3
 80013fa:	465a      	mov	r2, fp
 80013fc:	0001      	movs	r1, r0
 80013fe:	40da      	lsrs	r2, r3
 8001400:	3908      	subs	r1, #8
 8001402:	408e      	lsls	r6, r1
 8001404:	0013      	movs	r3, r2
 8001406:	4333      	orrs	r3, r6
 8001408:	4699      	mov	r9, r3
 800140a:	465b      	mov	r3, fp
 800140c:	408b      	lsls	r3, r1
 800140e:	4698      	mov	r8, r3
 8001410:	2300      	movs	r3, #0
 8001412:	4c3c      	ldr	r4, [pc, #240]	; (8001504 <__aeabi_ddiv+0x1f0>)
 8001414:	2600      	movs	r6, #0
 8001416:	1a24      	subs	r4, r4, r0
 8001418:	9303      	str	r3, [sp, #12]
 800141a:	e79f      	b.n	800135c <__aeabi_ddiv+0x48>
 800141c:	4651      	mov	r1, sl
 800141e:	465a      	mov	r2, fp
 8001420:	4311      	orrs	r1, r2
 8001422:	d129      	bne.n	8001478 <__aeabi_ddiv+0x164>
 8001424:	2200      	movs	r2, #0
 8001426:	4693      	mov	fp, r2
 8001428:	3202      	adds	r2, #2
 800142a:	e7b1      	b.n	8001390 <__aeabi_ddiv+0x7c>
 800142c:	4659      	mov	r1, fp
 800142e:	4301      	orrs	r1, r0
 8001430:	d01e      	beq.n	8001470 <__aeabi_ddiv+0x15c>
 8001432:	465b      	mov	r3, fp
 8001434:	2b00      	cmp	r3, #0
 8001436:	d100      	bne.n	800143a <__aeabi_ddiv+0x126>
 8001438:	e19e      	b.n	8001778 <__aeabi_ddiv+0x464>
 800143a:	4658      	mov	r0, fp
 800143c:	f001 fa10 	bl	8002860 <__clzsi2>
 8001440:	0003      	movs	r3, r0
 8001442:	3b0b      	subs	r3, #11
 8001444:	2b1c      	cmp	r3, #28
 8001446:	dd00      	ble.n	800144a <__aeabi_ddiv+0x136>
 8001448:	e18f      	b.n	800176a <__aeabi_ddiv+0x456>
 800144a:	0002      	movs	r2, r0
 800144c:	4659      	mov	r1, fp
 800144e:	3a08      	subs	r2, #8
 8001450:	4091      	lsls	r1, r2
 8001452:	468b      	mov	fp, r1
 8001454:	211d      	movs	r1, #29
 8001456:	1acb      	subs	r3, r1, r3
 8001458:	4651      	mov	r1, sl
 800145a:	40d9      	lsrs	r1, r3
 800145c:	000b      	movs	r3, r1
 800145e:	4659      	mov	r1, fp
 8001460:	430b      	orrs	r3, r1
 8001462:	4651      	mov	r1, sl
 8001464:	469b      	mov	fp, r3
 8001466:	4091      	lsls	r1, r2
 8001468:	4b26      	ldr	r3, [pc, #152]	; (8001504 <__aeabi_ddiv+0x1f0>)
 800146a:	2200      	movs	r2, #0
 800146c:	1a1b      	subs	r3, r3, r0
 800146e:	e78f      	b.n	8001390 <__aeabi_ddiv+0x7c>
 8001470:	2300      	movs	r3, #0
 8001472:	2201      	movs	r2, #1
 8001474:	469b      	mov	fp, r3
 8001476:	e78b      	b.n	8001390 <__aeabi_ddiv+0x7c>
 8001478:	4651      	mov	r1, sl
 800147a:	2203      	movs	r2, #3
 800147c:	e788      	b.n	8001390 <__aeabi_ddiv+0x7c>
 800147e:	2300      	movs	r3, #0
 8001480:	4698      	mov	r8, r3
 8001482:	3301      	adds	r3, #1
 8001484:	2604      	movs	r6, #4
 8001486:	2400      	movs	r4, #0
 8001488:	9303      	str	r3, [sp, #12]
 800148a:	e767      	b.n	800135c <__aeabi_ddiv+0x48>
 800148c:	2303      	movs	r3, #3
 800148e:	46b1      	mov	r9, r6
 8001490:	9303      	str	r3, [sp, #12]
 8001492:	260c      	movs	r6, #12
 8001494:	e762      	b.n	800135c <__aeabi_ddiv+0x48>
 8001496:	2a03      	cmp	r2, #3
 8001498:	d100      	bne.n	800149c <__aeabi_ddiv+0x188>
 800149a:	e25c      	b.n	8001956 <__aeabi_ddiv+0x642>
 800149c:	9b01      	ldr	r3, [sp, #4]
 800149e:	2a01      	cmp	r2, #1
 80014a0:	d000      	beq.n	80014a4 <__aeabi_ddiv+0x190>
 80014a2:	e1e4      	b.n	800186e <__aeabi_ddiv+0x55a>
 80014a4:	4013      	ands	r3, r2
 80014a6:	469c      	mov	ip, r3
 80014a8:	2300      	movs	r3, #0
 80014aa:	2400      	movs	r4, #0
 80014ac:	2200      	movs	r2, #0
 80014ae:	4698      	mov	r8, r3
 80014b0:	2100      	movs	r1, #0
 80014b2:	0312      	lsls	r2, r2, #12
 80014b4:	0b13      	lsrs	r3, r2, #12
 80014b6:	0d0a      	lsrs	r2, r1, #20
 80014b8:	0512      	lsls	r2, r2, #20
 80014ba:	431a      	orrs	r2, r3
 80014bc:	0523      	lsls	r3, r4, #20
 80014be:	4c12      	ldr	r4, [pc, #72]	; (8001508 <__aeabi_ddiv+0x1f4>)
 80014c0:	4640      	mov	r0, r8
 80014c2:	4022      	ands	r2, r4
 80014c4:	4313      	orrs	r3, r2
 80014c6:	4662      	mov	r2, ip
 80014c8:	005b      	lsls	r3, r3, #1
 80014ca:	07d2      	lsls	r2, r2, #31
 80014cc:	085b      	lsrs	r3, r3, #1
 80014ce:	4313      	orrs	r3, r2
 80014d0:	0019      	movs	r1, r3
 80014d2:	b007      	add	sp, #28
 80014d4:	bc3c      	pop	{r2, r3, r4, r5}
 80014d6:	4690      	mov	r8, r2
 80014d8:	4699      	mov	r9, r3
 80014da:	46a2      	mov	sl, r4
 80014dc:	46ab      	mov	fp, r5
 80014de:	bdf0      	pop	{r4, r5, r6, r7, pc}
 80014e0:	2300      	movs	r3, #0
 80014e2:	2280      	movs	r2, #128	; 0x80
 80014e4:	469c      	mov	ip, r3
 80014e6:	0312      	lsls	r2, r2, #12
 80014e8:	4698      	mov	r8, r3
 80014ea:	4c03      	ldr	r4, [pc, #12]	; (80014f8 <__aeabi_ddiv+0x1e4>)
 80014ec:	e7e0      	b.n	80014b0 <__aeabi_ddiv+0x19c>
 80014ee:	2300      	movs	r3, #0
 80014f0:	4c01      	ldr	r4, [pc, #4]	; (80014f8 <__aeabi_ddiv+0x1e4>)
 80014f2:	2200      	movs	r2, #0
 80014f4:	4698      	mov	r8, r3
 80014f6:	e7db      	b.n	80014b0 <__aeabi_ddiv+0x19c>
 80014f8:	000007ff 	.word	0x000007ff
 80014fc:	fffffc01 	.word	0xfffffc01
 8001500:	08004220 	.word	0x08004220
 8001504:	fffffc0d 	.word	0xfffffc0d
 8001508:	800fffff 	.word	0x800fffff
 800150c:	45d9      	cmp	r9, fp
 800150e:	d900      	bls.n	8001512 <__aeabi_ddiv+0x1fe>
 8001510:	e139      	b.n	8001786 <__aeabi_ddiv+0x472>
 8001512:	d100      	bne.n	8001516 <__aeabi_ddiv+0x202>
 8001514:	e134      	b.n	8001780 <__aeabi_ddiv+0x46c>
 8001516:	2300      	movs	r3, #0
 8001518:	4646      	mov	r6, r8
 800151a:	464d      	mov	r5, r9
 800151c:	469a      	mov	sl, r3
 800151e:	3c01      	subs	r4, #1
 8001520:	465b      	mov	r3, fp
 8001522:	0e0a      	lsrs	r2, r1, #24
 8001524:	021b      	lsls	r3, r3, #8
 8001526:	431a      	orrs	r2, r3
 8001528:	020b      	lsls	r3, r1, #8
 800152a:	0c17      	lsrs	r7, r2, #16
 800152c:	9303      	str	r3, [sp, #12]
 800152e:	0413      	lsls	r3, r2, #16
 8001530:	0c1b      	lsrs	r3, r3, #16
 8001532:	0039      	movs	r1, r7
 8001534:	0028      	movs	r0, r5
 8001536:	4690      	mov	r8, r2
 8001538:	9301      	str	r3, [sp, #4]
 800153a:	f7fe fde5 	bl	8000108 <__udivsi3>
 800153e:	0002      	movs	r2, r0
 8001540:	9b01      	ldr	r3, [sp, #4]
 8001542:	4683      	mov	fp, r0
 8001544:	435a      	muls	r2, r3
 8001546:	0028      	movs	r0, r5
 8001548:	0039      	movs	r1, r7
 800154a:	4691      	mov	r9, r2
 800154c:	f7fe fe62 	bl	8000214 <__aeabi_uidivmod>
 8001550:	0c35      	lsrs	r5, r6, #16
 8001552:	0409      	lsls	r1, r1, #16
 8001554:	430d      	orrs	r5, r1
 8001556:	45a9      	cmp	r9, r5
 8001558:	d90d      	bls.n	8001576 <__aeabi_ddiv+0x262>
 800155a:	465b      	mov	r3, fp
 800155c:	4445      	add	r5, r8
 800155e:	3b01      	subs	r3, #1
 8001560:	45a8      	cmp	r8, r5
 8001562:	d900      	bls.n	8001566 <__aeabi_ddiv+0x252>
 8001564:	e13a      	b.n	80017dc <__aeabi_ddiv+0x4c8>
 8001566:	45a9      	cmp	r9, r5
 8001568:	d800      	bhi.n	800156c <__aeabi_ddiv+0x258>
 800156a:	e137      	b.n	80017dc <__aeabi_ddiv+0x4c8>
 800156c:	2302      	movs	r3, #2
 800156e:	425b      	negs	r3, r3
 8001570:	469c      	mov	ip, r3
 8001572:	4445      	add	r5, r8
 8001574:	44e3      	add	fp, ip
 8001576:	464b      	mov	r3, r9
 8001578:	1aeb      	subs	r3, r5, r3
 800157a:	0039      	movs	r1, r7
 800157c:	0018      	movs	r0, r3
 800157e:	9304      	str	r3, [sp, #16]
 8001580:	f7fe fdc2 	bl	8000108 <__udivsi3>
 8001584:	9b01      	ldr	r3, [sp, #4]
 8001586:	0005      	movs	r5, r0
 8001588:	4343      	muls	r3, r0
 800158a:	0039      	movs	r1, r7
 800158c:	9804      	ldr	r0, [sp, #16]
 800158e:	4699      	mov	r9, r3
 8001590:	f7fe fe40 	bl	8000214 <__aeabi_uidivmod>
 8001594:	0433      	lsls	r3, r6, #16
 8001596:	0409      	lsls	r1, r1, #16
 8001598:	0c1b      	lsrs	r3, r3, #16
 800159a:	430b      	orrs	r3, r1
 800159c:	4599      	cmp	r9, r3
 800159e:	d909      	bls.n	80015b4 <__aeabi_ddiv+0x2a0>
 80015a0:	4443      	add	r3, r8
 80015a2:	1e6a      	subs	r2, r5, #1
 80015a4:	4598      	cmp	r8, r3
 80015a6:	d900      	bls.n	80015aa <__aeabi_ddiv+0x296>
 80015a8:	e11a      	b.n	80017e0 <__aeabi_ddiv+0x4cc>
 80015aa:	4599      	cmp	r9, r3
 80015ac:	d800      	bhi.n	80015b0 <__aeabi_ddiv+0x29c>
 80015ae:	e117      	b.n	80017e0 <__aeabi_ddiv+0x4cc>
 80015b0:	3d02      	subs	r5, #2
 80015b2:	4443      	add	r3, r8
 80015b4:	464a      	mov	r2, r9
 80015b6:	1a9b      	subs	r3, r3, r2
 80015b8:	465a      	mov	r2, fp
 80015ba:	0412      	lsls	r2, r2, #16
 80015bc:	432a      	orrs	r2, r5
 80015be:	9903      	ldr	r1, [sp, #12]
 80015c0:	4693      	mov	fp, r2
 80015c2:	0c10      	lsrs	r0, r2, #16
 80015c4:	0c0a      	lsrs	r2, r1, #16
 80015c6:	4691      	mov	r9, r2
 80015c8:	0409      	lsls	r1, r1, #16
 80015ca:	465a      	mov	r2, fp
 80015cc:	0c09      	lsrs	r1, r1, #16
 80015ce:	464e      	mov	r6, r9
 80015d0:	000d      	movs	r5, r1
 80015d2:	0412      	lsls	r2, r2, #16
 80015d4:	0c12      	lsrs	r2, r2, #16
 80015d6:	4345      	muls	r5, r0
 80015d8:	9105      	str	r1, [sp, #20]
 80015da:	4351      	muls	r1, r2
 80015dc:	4372      	muls	r2, r6
 80015de:	4370      	muls	r0, r6
 80015e0:	1952      	adds	r2, r2, r5
 80015e2:	0c0e      	lsrs	r6, r1, #16
 80015e4:	18b2      	adds	r2, r6, r2
 80015e6:	4295      	cmp	r5, r2
 80015e8:	d903      	bls.n	80015f2 <__aeabi_ddiv+0x2de>
 80015ea:	2580      	movs	r5, #128	; 0x80
 80015ec:	026d      	lsls	r5, r5, #9
 80015ee:	46ac      	mov	ip, r5
 80015f0:	4460      	add	r0, ip
 80015f2:	0c15      	lsrs	r5, r2, #16
 80015f4:	0409      	lsls	r1, r1, #16
 80015f6:	0412      	lsls	r2, r2, #16
 80015f8:	0c09      	lsrs	r1, r1, #16
 80015fa:	1828      	adds	r0, r5, r0
 80015fc:	1852      	adds	r2, r2, r1
 80015fe:	4283      	cmp	r3, r0
 8001600:	d200      	bcs.n	8001604 <__aeabi_ddiv+0x2f0>
 8001602:	e0ce      	b.n	80017a2 <__aeabi_ddiv+0x48e>
 8001604:	d100      	bne.n	8001608 <__aeabi_ddiv+0x2f4>
 8001606:	e0c8      	b.n	800179a <__aeabi_ddiv+0x486>
 8001608:	1a1d      	subs	r5, r3, r0
 800160a:	4653      	mov	r3, sl
 800160c:	1a9e      	subs	r6, r3, r2
 800160e:	45b2      	cmp	sl, r6
 8001610:	4192      	sbcs	r2, r2
 8001612:	4252      	negs	r2, r2
 8001614:	1aab      	subs	r3, r5, r2
 8001616:	469a      	mov	sl, r3
 8001618:	4598      	cmp	r8, r3
 800161a:	d100      	bne.n	800161e <__aeabi_ddiv+0x30a>
 800161c:	e117      	b.n	800184e <__aeabi_ddiv+0x53a>
 800161e:	0039      	movs	r1, r7
 8001620:	0018      	movs	r0, r3
 8001622:	f7fe fd71 	bl	8000108 <__udivsi3>
 8001626:	9b01      	ldr	r3, [sp, #4]
 8001628:	0005      	movs	r5, r0
 800162a:	4343      	muls	r3, r0
 800162c:	0039      	movs	r1, r7
 800162e:	4650      	mov	r0, sl
 8001630:	9304      	str	r3, [sp, #16]
 8001632:	f7fe fdef 	bl	8000214 <__aeabi_uidivmod>
 8001636:	9804      	ldr	r0, [sp, #16]
 8001638:	040b      	lsls	r3, r1, #16
 800163a:	0c31      	lsrs	r1, r6, #16
 800163c:	4319      	orrs	r1, r3
 800163e:	4288      	cmp	r0, r1
 8001640:	d909      	bls.n	8001656 <__aeabi_ddiv+0x342>
 8001642:	4441      	add	r1, r8
 8001644:	1e6b      	subs	r3, r5, #1
 8001646:	4588      	cmp	r8, r1
 8001648:	d900      	bls.n	800164c <__aeabi_ddiv+0x338>
 800164a:	e107      	b.n	800185c <__aeabi_ddiv+0x548>
 800164c:	4288      	cmp	r0, r1
 800164e:	d800      	bhi.n	8001652 <__aeabi_ddiv+0x33e>
 8001650:	e104      	b.n	800185c <__aeabi_ddiv+0x548>
 8001652:	3d02      	subs	r5, #2
 8001654:	4441      	add	r1, r8
 8001656:	9b04      	ldr	r3, [sp, #16]
 8001658:	1acb      	subs	r3, r1, r3
 800165a:	0018      	movs	r0, r3
 800165c:	0039      	movs	r1, r7
 800165e:	9304      	str	r3, [sp, #16]
 8001660:	f7fe fd52 	bl	8000108 <__udivsi3>
 8001664:	9b01      	ldr	r3, [sp, #4]
 8001666:	4682      	mov	sl, r0
 8001668:	4343      	muls	r3, r0
 800166a:	0039      	movs	r1, r7
 800166c:	9804      	ldr	r0, [sp, #16]
 800166e:	9301      	str	r3, [sp, #4]
 8001670:	f7fe fdd0 	bl	8000214 <__aeabi_uidivmod>
 8001674:	9801      	ldr	r0, [sp, #4]
 8001676:	040b      	lsls	r3, r1, #16
 8001678:	0431      	lsls	r1, r6, #16
 800167a:	0c09      	lsrs	r1, r1, #16
 800167c:	4319      	orrs	r1, r3
 800167e:	4288      	cmp	r0, r1
 8001680:	d90d      	bls.n	800169e <__aeabi_ddiv+0x38a>
 8001682:	4653      	mov	r3, sl
 8001684:	4441      	add	r1, r8
 8001686:	3b01      	subs	r3, #1
 8001688:	4588      	cmp	r8, r1
 800168a:	d900      	bls.n	800168e <__aeabi_ddiv+0x37a>
 800168c:	e0e8      	b.n	8001860 <__aeabi_ddiv+0x54c>
 800168e:	4288      	cmp	r0, r1
 8001690:	d800      	bhi.n	8001694 <__aeabi_ddiv+0x380>
 8001692:	e0e5      	b.n	8001860 <__aeabi_ddiv+0x54c>
 8001694:	2302      	movs	r3, #2
 8001696:	425b      	negs	r3, r3
 8001698:	469c      	mov	ip, r3
 800169a:	4441      	add	r1, r8
 800169c:	44e2      	add	sl, ip
 800169e:	9b01      	ldr	r3, [sp, #4]
 80016a0:	042d      	lsls	r5, r5, #16
 80016a2:	1ace      	subs	r6, r1, r3
 80016a4:	4651      	mov	r1, sl
 80016a6:	4329      	orrs	r1, r5
 80016a8:	9d05      	ldr	r5, [sp, #20]
 80016aa:	464f      	mov	r7, r9
 80016ac:	002a      	movs	r2, r5
 80016ae:	040b      	lsls	r3, r1, #16
 80016b0:	0c08      	lsrs	r0, r1, #16
 80016b2:	0c1b      	lsrs	r3, r3, #16
 80016b4:	435a      	muls	r2, r3
 80016b6:	4345      	muls	r5, r0
 80016b8:	437b      	muls	r3, r7
 80016ba:	4378      	muls	r0, r7
 80016bc:	195b      	adds	r3, r3, r5
 80016be:	0c17      	lsrs	r7, r2, #16
 80016c0:	18fb      	adds	r3, r7, r3
 80016c2:	429d      	cmp	r5, r3
 80016c4:	d903      	bls.n	80016ce <__aeabi_ddiv+0x3ba>
 80016c6:	2580      	movs	r5, #128	; 0x80
 80016c8:	026d      	lsls	r5, r5, #9
 80016ca:	46ac      	mov	ip, r5
 80016cc:	4460      	add	r0, ip
 80016ce:	0c1d      	lsrs	r5, r3, #16
 80016d0:	0412      	lsls	r2, r2, #16
 80016d2:	041b      	lsls	r3, r3, #16
 80016d4:	0c12      	lsrs	r2, r2, #16
 80016d6:	1828      	adds	r0, r5, r0
 80016d8:	189b      	adds	r3, r3, r2
 80016da:	4286      	cmp	r6, r0
 80016dc:	d200      	bcs.n	80016e0 <__aeabi_ddiv+0x3cc>
 80016de:	e093      	b.n	8001808 <__aeabi_ddiv+0x4f4>
 80016e0:	d100      	bne.n	80016e4 <__aeabi_ddiv+0x3d0>
 80016e2:	e08e      	b.n	8001802 <__aeabi_ddiv+0x4ee>
 80016e4:	2301      	movs	r3, #1
 80016e6:	4319      	orrs	r1, r3
 80016e8:	4ba0      	ldr	r3, [pc, #640]	; (800196c <__aeabi_ddiv+0x658>)
 80016ea:	18e3      	adds	r3, r4, r3
 80016ec:	2b00      	cmp	r3, #0
 80016ee:	dc00      	bgt.n	80016f2 <__aeabi_ddiv+0x3de>
 80016f0:	e099      	b.n	8001826 <__aeabi_ddiv+0x512>
 80016f2:	074a      	lsls	r2, r1, #29
 80016f4:	d000      	beq.n	80016f8 <__aeabi_ddiv+0x3e4>
 80016f6:	e09e      	b.n	8001836 <__aeabi_ddiv+0x522>
 80016f8:	465a      	mov	r2, fp
 80016fa:	01d2      	lsls	r2, r2, #7
 80016fc:	d506      	bpl.n	800170c <__aeabi_ddiv+0x3f8>
 80016fe:	465a      	mov	r2, fp
 8001700:	4b9b      	ldr	r3, [pc, #620]	; (8001970 <__aeabi_ddiv+0x65c>)
 8001702:	401a      	ands	r2, r3
 8001704:	2380      	movs	r3, #128	; 0x80
 8001706:	4693      	mov	fp, r2
 8001708:	00db      	lsls	r3, r3, #3
 800170a:	18e3      	adds	r3, r4, r3
 800170c:	4a99      	ldr	r2, [pc, #612]	; (8001974 <__aeabi_ddiv+0x660>)
 800170e:	4293      	cmp	r3, r2
 8001710:	dd68      	ble.n	80017e4 <__aeabi_ddiv+0x4d0>
 8001712:	2301      	movs	r3, #1
 8001714:	9a02      	ldr	r2, [sp, #8]
 8001716:	4c98      	ldr	r4, [pc, #608]	; (8001978 <__aeabi_ddiv+0x664>)
 8001718:	401a      	ands	r2, r3
 800171a:	2300      	movs	r3, #0
 800171c:	4694      	mov	ip, r2
 800171e:	4698      	mov	r8, r3
 8001720:	2200      	movs	r2, #0
 8001722:	e6c5      	b.n	80014b0 <__aeabi_ddiv+0x19c>
 8001724:	2280      	movs	r2, #128	; 0x80
 8001726:	464b      	mov	r3, r9
 8001728:	0312      	lsls	r2, r2, #12
 800172a:	4213      	tst	r3, r2
 800172c:	d00a      	beq.n	8001744 <__aeabi_ddiv+0x430>
 800172e:	465b      	mov	r3, fp
 8001730:	4213      	tst	r3, r2
 8001732:	d106      	bne.n	8001742 <__aeabi_ddiv+0x42e>
 8001734:	431a      	orrs	r2, r3
 8001736:	0312      	lsls	r2, r2, #12
 8001738:	0b12      	lsrs	r2, r2, #12
 800173a:	46ac      	mov	ip, r5
 800173c:	4688      	mov	r8, r1
 800173e:	4c8e      	ldr	r4, [pc, #568]	; (8001978 <__aeabi_ddiv+0x664>)
 8001740:	e6b6      	b.n	80014b0 <__aeabi_ddiv+0x19c>
 8001742:	464b      	mov	r3, r9
 8001744:	431a      	orrs	r2, r3
 8001746:	0312      	lsls	r2, r2, #12
 8001748:	0b12      	lsrs	r2, r2, #12
 800174a:	46bc      	mov	ip, r7
 800174c:	4c8a      	ldr	r4, [pc, #552]	; (8001978 <__aeabi_ddiv+0x664>)
 800174e:	e6af      	b.n	80014b0 <__aeabi_ddiv+0x19c>
 8001750:	0003      	movs	r3, r0
 8001752:	465a      	mov	r2, fp
 8001754:	3b28      	subs	r3, #40	; 0x28
 8001756:	409a      	lsls	r2, r3
 8001758:	2300      	movs	r3, #0
 800175a:	4691      	mov	r9, r2
 800175c:	4698      	mov	r8, r3
 800175e:	e657      	b.n	8001410 <__aeabi_ddiv+0xfc>
 8001760:	4658      	mov	r0, fp
 8001762:	f001 f87d 	bl	8002860 <__clzsi2>
 8001766:	3020      	adds	r0, #32
 8001768:	e640      	b.n	80013ec <__aeabi_ddiv+0xd8>
 800176a:	0003      	movs	r3, r0
 800176c:	4652      	mov	r2, sl
 800176e:	3b28      	subs	r3, #40	; 0x28
 8001770:	409a      	lsls	r2, r3
 8001772:	2100      	movs	r1, #0
 8001774:	4693      	mov	fp, r2
 8001776:	e677      	b.n	8001468 <__aeabi_ddiv+0x154>
 8001778:	f001 f872 	bl	8002860 <__clzsi2>
 800177c:	3020      	adds	r0, #32
 800177e:	e65f      	b.n	8001440 <__aeabi_ddiv+0x12c>
 8001780:	4588      	cmp	r8, r1
 8001782:	d200      	bcs.n	8001786 <__aeabi_ddiv+0x472>
 8001784:	e6c7      	b.n	8001516 <__aeabi_ddiv+0x202>
 8001786:	464b      	mov	r3, r9
 8001788:	07de      	lsls	r6, r3, #31
 800178a:	085d      	lsrs	r5, r3, #1
 800178c:	4643      	mov	r3, r8
 800178e:	085b      	lsrs	r3, r3, #1
 8001790:	431e      	orrs	r6, r3
 8001792:	4643      	mov	r3, r8
 8001794:	07db      	lsls	r3, r3, #31
 8001796:	469a      	mov	sl, r3
 8001798:	e6c2      	b.n	8001520 <__aeabi_ddiv+0x20c>
 800179a:	2500      	movs	r5, #0
 800179c:	4592      	cmp	sl, r2
 800179e:	d300      	bcc.n	80017a2 <__aeabi_ddiv+0x48e>
 80017a0:	e733      	b.n	800160a <__aeabi_ddiv+0x2f6>
 80017a2:	9e03      	ldr	r6, [sp, #12]
 80017a4:	4659      	mov	r1, fp
 80017a6:	46b4      	mov	ip, r6
 80017a8:	44e2      	add	sl, ip
 80017aa:	45b2      	cmp	sl, r6
 80017ac:	41ad      	sbcs	r5, r5
 80017ae:	426d      	negs	r5, r5
 80017b0:	4445      	add	r5, r8
 80017b2:	18eb      	adds	r3, r5, r3
 80017b4:	3901      	subs	r1, #1
 80017b6:	4598      	cmp	r8, r3
 80017b8:	d207      	bcs.n	80017ca <__aeabi_ddiv+0x4b6>
 80017ba:	4298      	cmp	r0, r3
 80017bc:	d900      	bls.n	80017c0 <__aeabi_ddiv+0x4ac>
 80017be:	e07f      	b.n	80018c0 <__aeabi_ddiv+0x5ac>
 80017c0:	d100      	bne.n	80017c4 <__aeabi_ddiv+0x4b0>
 80017c2:	e0bc      	b.n	800193e <__aeabi_ddiv+0x62a>
 80017c4:	1a1d      	subs	r5, r3, r0
 80017c6:	468b      	mov	fp, r1
 80017c8:	e71f      	b.n	800160a <__aeabi_ddiv+0x2f6>
 80017ca:	4598      	cmp	r8, r3
 80017cc:	d1fa      	bne.n	80017c4 <__aeabi_ddiv+0x4b0>
 80017ce:	9d03      	ldr	r5, [sp, #12]
 80017d0:	4555      	cmp	r5, sl
 80017d2:	d9f2      	bls.n	80017ba <__aeabi_ddiv+0x4a6>
 80017d4:	4643      	mov	r3, r8
 80017d6:	468b      	mov	fp, r1
 80017d8:	1a1d      	subs	r5, r3, r0
 80017da:	e716      	b.n	800160a <__aeabi_ddiv+0x2f6>
 80017dc:	469b      	mov	fp, r3
 80017de:	e6ca      	b.n	8001576 <__aeabi_ddiv+0x262>
 80017e0:	0015      	movs	r5, r2
 80017e2:	e6e7      	b.n	80015b4 <__aeabi_ddiv+0x2a0>
 80017e4:	465a      	mov	r2, fp
 80017e6:	08c9      	lsrs	r1, r1, #3
 80017e8:	0752      	lsls	r2, r2, #29
 80017ea:	430a      	orrs	r2, r1
 80017ec:	055b      	lsls	r3, r3, #21
 80017ee:	4690      	mov	r8, r2
 80017f0:	0d5c      	lsrs	r4, r3, #21
 80017f2:	465a      	mov	r2, fp
 80017f4:	2301      	movs	r3, #1
 80017f6:	9902      	ldr	r1, [sp, #8]
 80017f8:	0252      	lsls	r2, r2, #9
 80017fa:	4019      	ands	r1, r3
 80017fc:	0b12      	lsrs	r2, r2, #12
 80017fe:	468c      	mov	ip, r1
 8001800:	e656      	b.n	80014b0 <__aeabi_ddiv+0x19c>
 8001802:	2b00      	cmp	r3, #0
 8001804:	d100      	bne.n	8001808 <__aeabi_ddiv+0x4f4>
 8001806:	e76f      	b.n	80016e8 <__aeabi_ddiv+0x3d4>
 8001808:	4446      	add	r6, r8
 800180a:	1e4a      	subs	r2, r1, #1
 800180c:	45b0      	cmp	r8, r6
 800180e:	d929      	bls.n	8001864 <__aeabi_ddiv+0x550>
 8001810:	0011      	movs	r1, r2
 8001812:	4286      	cmp	r6, r0
 8001814:	d000      	beq.n	8001818 <__aeabi_ddiv+0x504>
 8001816:	e765      	b.n	80016e4 <__aeabi_ddiv+0x3d0>
 8001818:	9a03      	ldr	r2, [sp, #12]
 800181a:	4293      	cmp	r3, r2
 800181c:	d000      	beq.n	8001820 <__aeabi_ddiv+0x50c>
 800181e:	e761      	b.n	80016e4 <__aeabi_ddiv+0x3d0>
 8001820:	e762      	b.n	80016e8 <__aeabi_ddiv+0x3d4>
 8001822:	2101      	movs	r1, #1
 8001824:	4249      	negs	r1, r1
 8001826:	2001      	movs	r0, #1
 8001828:	1ac2      	subs	r2, r0, r3
 800182a:	2a38      	cmp	r2, #56	; 0x38
 800182c:	dd21      	ble.n	8001872 <__aeabi_ddiv+0x55e>
 800182e:	9b02      	ldr	r3, [sp, #8]
 8001830:	4003      	ands	r3, r0
 8001832:	469c      	mov	ip, r3
 8001834:	e638      	b.n	80014a8 <__aeabi_ddiv+0x194>
 8001836:	220f      	movs	r2, #15
 8001838:	400a      	ands	r2, r1
 800183a:	2a04      	cmp	r2, #4
 800183c:	d100      	bne.n	8001840 <__aeabi_ddiv+0x52c>
 800183e:	e75b      	b.n	80016f8 <__aeabi_ddiv+0x3e4>
 8001840:	000a      	movs	r2, r1
 8001842:	1d11      	adds	r1, r2, #4
 8001844:	4291      	cmp	r1, r2
 8001846:	4192      	sbcs	r2, r2
 8001848:	4252      	negs	r2, r2
 800184a:	4493      	add	fp, r2
 800184c:	e754      	b.n	80016f8 <__aeabi_ddiv+0x3e4>
 800184e:	4b47      	ldr	r3, [pc, #284]	; (800196c <__aeabi_ddiv+0x658>)
 8001850:	18e3      	adds	r3, r4, r3
 8001852:	2b00      	cmp	r3, #0
 8001854:	dde5      	ble.n	8001822 <__aeabi_ddiv+0x50e>
 8001856:	2201      	movs	r2, #1
 8001858:	4252      	negs	r2, r2
 800185a:	e7f2      	b.n	8001842 <__aeabi_ddiv+0x52e>
 800185c:	001d      	movs	r5, r3
 800185e:	e6fa      	b.n	8001656 <__aeabi_ddiv+0x342>
 8001860:	469a      	mov	sl, r3
 8001862:	e71c      	b.n	800169e <__aeabi_ddiv+0x38a>
 8001864:	42b0      	cmp	r0, r6
 8001866:	d839      	bhi.n	80018dc <__aeabi_ddiv+0x5c8>
 8001868:	d06e      	beq.n	8001948 <__aeabi_ddiv+0x634>
 800186a:	0011      	movs	r1, r2
 800186c:	e73a      	b.n	80016e4 <__aeabi_ddiv+0x3d0>
 800186e:	9302      	str	r3, [sp, #8]
 8001870:	e73a      	b.n	80016e8 <__aeabi_ddiv+0x3d4>
 8001872:	2a1f      	cmp	r2, #31
 8001874:	dc3c      	bgt.n	80018f0 <__aeabi_ddiv+0x5dc>
 8001876:	2320      	movs	r3, #32
 8001878:	1a9b      	subs	r3, r3, r2
 800187a:	000c      	movs	r4, r1
 800187c:	4658      	mov	r0, fp
 800187e:	4099      	lsls	r1, r3
 8001880:	4098      	lsls	r0, r3
 8001882:	1e4b      	subs	r3, r1, #1
 8001884:	4199      	sbcs	r1, r3
 8001886:	465b      	mov	r3, fp
 8001888:	40d4      	lsrs	r4, r2
 800188a:	40d3      	lsrs	r3, r2
 800188c:	4320      	orrs	r0, r4
 800188e:	4308      	orrs	r0, r1
 8001890:	001a      	movs	r2, r3
 8001892:	0743      	lsls	r3, r0, #29
 8001894:	d009      	beq.n	80018aa <__aeabi_ddiv+0x596>
 8001896:	230f      	movs	r3, #15
 8001898:	4003      	ands	r3, r0
 800189a:	2b04      	cmp	r3, #4
 800189c:	d005      	beq.n	80018aa <__aeabi_ddiv+0x596>
 800189e:	0001      	movs	r1, r0
 80018a0:	1d08      	adds	r0, r1, #4
 80018a2:	4288      	cmp	r0, r1
 80018a4:	419b      	sbcs	r3, r3
 80018a6:	425b      	negs	r3, r3
 80018a8:	18d2      	adds	r2, r2, r3
 80018aa:	0213      	lsls	r3, r2, #8
 80018ac:	d53a      	bpl.n	8001924 <__aeabi_ddiv+0x610>
 80018ae:	2301      	movs	r3, #1
 80018b0:	9a02      	ldr	r2, [sp, #8]
 80018b2:	2401      	movs	r4, #1
 80018b4:	401a      	ands	r2, r3
 80018b6:	2300      	movs	r3, #0
 80018b8:	4694      	mov	ip, r2
 80018ba:	4698      	mov	r8, r3
 80018bc:	2200      	movs	r2, #0
 80018be:	e5f7      	b.n	80014b0 <__aeabi_ddiv+0x19c>
 80018c0:	2102      	movs	r1, #2
 80018c2:	4249      	negs	r1, r1
 80018c4:	468c      	mov	ip, r1
 80018c6:	9d03      	ldr	r5, [sp, #12]
 80018c8:	44e3      	add	fp, ip
 80018ca:	46ac      	mov	ip, r5
 80018cc:	44e2      	add	sl, ip
 80018ce:	45aa      	cmp	sl, r5
 80018d0:	41ad      	sbcs	r5, r5
 80018d2:	426d      	negs	r5, r5
 80018d4:	4445      	add	r5, r8
 80018d6:	18ed      	adds	r5, r5, r3
 80018d8:	1a2d      	subs	r5, r5, r0
 80018da:	e696      	b.n	800160a <__aeabi_ddiv+0x2f6>
 80018dc:	1e8a      	subs	r2, r1, #2
 80018de:	9903      	ldr	r1, [sp, #12]
 80018e0:	004d      	lsls	r5, r1, #1
 80018e2:	428d      	cmp	r5, r1
 80018e4:	4189      	sbcs	r1, r1
 80018e6:	4249      	negs	r1, r1
 80018e8:	4441      	add	r1, r8
 80018ea:	1876      	adds	r6, r6, r1
 80018ec:	9503      	str	r5, [sp, #12]
 80018ee:	e78f      	b.n	8001810 <__aeabi_ddiv+0x4fc>
 80018f0:	201f      	movs	r0, #31
 80018f2:	4240      	negs	r0, r0
 80018f4:	1ac3      	subs	r3, r0, r3
 80018f6:	4658      	mov	r0, fp
 80018f8:	40d8      	lsrs	r0, r3
 80018fa:	0003      	movs	r3, r0
 80018fc:	2a20      	cmp	r2, #32
 80018fe:	d028      	beq.n	8001952 <__aeabi_ddiv+0x63e>
 8001900:	2040      	movs	r0, #64	; 0x40
 8001902:	465d      	mov	r5, fp
 8001904:	1a82      	subs	r2, r0, r2
 8001906:	4095      	lsls	r5, r2
 8001908:	4329      	orrs	r1, r5
 800190a:	1e4a      	subs	r2, r1, #1
 800190c:	4191      	sbcs	r1, r2
 800190e:	4319      	orrs	r1, r3
 8001910:	2307      	movs	r3, #7
 8001912:	2200      	movs	r2, #0
 8001914:	400b      	ands	r3, r1
 8001916:	d009      	beq.n	800192c <__aeabi_ddiv+0x618>
 8001918:	230f      	movs	r3, #15
 800191a:	2200      	movs	r2, #0
 800191c:	400b      	ands	r3, r1
 800191e:	0008      	movs	r0, r1
 8001920:	2b04      	cmp	r3, #4
 8001922:	d1bd      	bne.n	80018a0 <__aeabi_ddiv+0x58c>
 8001924:	0001      	movs	r1, r0
 8001926:	0753      	lsls	r3, r2, #29
 8001928:	0252      	lsls	r2, r2, #9
 800192a:	0b12      	lsrs	r2, r2, #12
 800192c:	08c9      	lsrs	r1, r1, #3
 800192e:	4319      	orrs	r1, r3
 8001930:	2301      	movs	r3, #1
 8001932:	4688      	mov	r8, r1
 8001934:	9902      	ldr	r1, [sp, #8]
 8001936:	2400      	movs	r4, #0
 8001938:	4019      	ands	r1, r3
 800193a:	468c      	mov	ip, r1
 800193c:	e5b8      	b.n	80014b0 <__aeabi_ddiv+0x19c>
 800193e:	4552      	cmp	r2, sl
 8001940:	d8be      	bhi.n	80018c0 <__aeabi_ddiv+0x5ac>
 8001942:	468b      	mov	fp, r1
 8001944:	2500      	movs	r5, #0
 8001946:	e660      	b.n	800160a <__aeabi_ddiv+0x2f6>
 8001948:	9d03      	ldr	r5, [sp, #12]
 800194a:	429d      	cmp	r5, r3
 800194c:	d3c6      	bcc.n	80018dc <__aeabi_ddiv+0x5c8>
 800194e:	0011      	movs	r1, r2
 8001950:	e762      	b.n	8001818 <__aeabi_ddiv+0x504>
 8001952:	2500      	movs	r5, #0
 8001954:	e7d8      	b.n	8001908 <__aeabi_ddiv+0x5f4>
 8001956:	2280      	movs	r2, #128	; 0x80
 8001958:	465b      	mov	r3, fp
 800195a:	0312      	lsls	r2, r2, #12
 800195c:	431a      	orrs	r2, r3
 800195e:	9b01      	ldr	r3, [sp, #4]
 8001960:	0312      	lsls	r2, r2, #12
 8001962:	0b12      	lsrs	r2, r2, #12
 8001964:	469c      	mov	ip, r3
 8001966:	4688      	mov	r8, r1
 8001968:	4c03      	ldr	r4, [pc, #12]	; (8001978 <__aeabi_ddiv+0x664>)
 800196a:	e5a1      	b.n	80014b0 <__aeabi_ddiv+0x19c>
 800196c:	000003ff 	.word	0x000003ff
 8001970:	feffffff 	.word	0xfeffffff
 8001974:	000007fe 	.word	0x000007fe
 8001978:	000007ff 	.word	0x000007ff

0800197c <__eqdf2>:
 800197c:	b5f0      	push	{r4, r5, r6, r7, lr}
 800197e:	464f      	mov	r7, r9
 8001980:	4646      	mov	r6, r8
 8001982:	46d6      	mov	lr, sl
 8001984:	005c      	lsls	r4, r3, #1
 8001986:	b5c0      	push	{r6, r7, lr}
 8001988:	031f      	lsls	r7, r3, #12
 800198a:	0fdb      	lsrs	r3, r3, #31
 800198c:	469a      	mov	sl, r3
 800198e:	4b17      	ldr	r3, [pc, #92]	; (80019ec <__eqdf2+0x70>)
 8001990:	030e      	lsls	r6, r1, #12
 8001992:	004d      	lsls	r5, r1, #1
 8001994:	4684      	mov	ip, r0
 8001996:	4680      	mov	r8, r0
 8001998:	0b36      	lsrs	r6, r6, #12
 800199a:	0d6d      	lsrs	r5, r5, #21
 800199c:	0fc9      	lsrs	r1, r1, #31
 800199e:	4691      	mov	r9, r2
 80019a0:	0b3f      	lsrs	r7, r7, #12
 80019a2:	0d64      	lsrs	r4, r4, #21
 80019a4:	2001      	movs	r0, #1
 80019a6:	429d      	cmp	r5, r3
 80019a8:	d008      	beq.n	80019bc <__eqdf2+0x40>
 80019aa:	429c      	cmp	r4, r3
 80019ac:	d001      	beq.n	80019b2 <__eqdf2+0x36>
 80019ae:	42a5      	cmp	r5, r4
 80019b0:	d00b      	beq.n	80019ca <__eqdf2+0x4e>
 80019b2:	bc1c      	pop	{r2, r3, r4}
 80019b4:	4690      	mov	r8, r2
 80019b6:	4699      	mov	r9, r3
 80019b8:	46a2      	mov	sl, r4
 80019ba:	bdf0      	pop	{r4, r5, r6, r7, pc}
 80019bc:	4663      	mov	r3, ip
 80019be:	4333      	orrs	r3, r6
 80019c0:	d1f7      	bne.n	80019b2 <__eqdf2+0x36>
 80019c2:	42ac      	cmp	r4, r5
 80019c4:	d1f5      	bne.n	80019b2 <__eqdf2+0x36>
 80019c6:	433a      	orrs	r2, r7
 80019c8:	d1f3      	bne.n	80019b2 <__eqdf2+0x36>
 80019ca:	2001      	movs	r0, #1
 80019cc:	42be      	cmp	r6, r7
 80019ce:	d1f0      	bne.n	80019b2 <__eqdf2+0x36>
 80019d0:	45c8      	cmp	r8, r9
 80019d2:	d1ee      	bne.n	80019b2 <__eqdf2+0x36>
 80019d4:	4551      	cmp	r1, sl
 80019d6:	d007      	beq.n	80019e8 <__eqdf2+0x6c>
 80019d8:	2d00      	cmp	r5, #0
 80019da:	d1ea      	bne.n	80019b2 <__eqdf2+0x36>
 80019dc:	4663      	mov	r3, ip
 80019de:	431e      	orrs	r6, r3
 80019e0:	0030      	movs	r0, r6
 80019e2:	1e46      	subs	r6, r0, #1
 80019e4:	41b0      	sbcs	r0, r6
 80019e6:	e7e4      	b.n	80019b2 <__eqdf2+0x36>
 80019e8:	2000      	movs	r0, #0
 80019ea:	e7e2      	b.n	80019b2 <__eqdf2+0x36>
 80019ec:	000007ff 	.word	0x000007ff

080019f0 <__gedf2>:
 80019f0:	b5f0      	push	{r4, r5, r6, r7, lr}
 80019f2:	4645      	mov	r5, r8
 80019f4:	46de      	mov	lr, fp
 80019f6:	4657      	mov	r7, sl
 80019f8:	464e      	mov	r6, r9
 80019fa:	b5e0      	push	{r5, r6, r7, lr}
 80019fc:	031f      	lsls	r7, r3, #12
 80019fe:	0b3d      	lsrs	r5, r7, #12
 8001a00:	4f2c      	ldr	r7, [pc, #176]	; (8001ab4 <__gedf2+0xc4>)
 8001a02:	030e      	lsls	r6, r1, #12
 8001a04:	004c      	lsls	r4, r1, #1
 8001a06:	46ab      	mov	fp, r5
 8001a08:	005d      	lsls	r5, r3, #1
 8001a0a:	4684      	mov	ip, r0
 8001a0c:	0b36      	lsrs	r6, r6, #12
 8001a0e:	0d64      	lsrs	r4, r4, #21
 8001a10:	0fc9      	lsrs	r1, r1, #31
 8001a12:	4690      	mov	r8, r2
 8001a14:	0d6d      	lsrs	r5, r5, #21
 8001a16:	0fdb      	lsrs	r3, r3, #31
 8001a18:	42bc      	cmp	r4, r7
 8001a1a:	d02a      	beq.n	8001a72 <__gedf2+0x82>
 8001a1c:	4f25      	ldr	r7, [pc, #148]	; (8001ab4 <__gedf2+0xc4>)
 8001a1e:	42bd      	cmp	r5, r7
 8001a20:	d02d      	beq.n	8001a7e <__gedf2+0x8e>
 8001a22:	2c00      	cmp	r4, #0
 8001a24:	d10f      	bne.n	8001a46 <__gedf2+0x56>
 8001a26:	4330      	orrs	r0, r6
 8001a28:	0007      	movs	r7, r0
 8001a2a:	4681      	mov	r9, r0
 8001a2c:	4278      	negs	r0, r7
 8001a2e:	4178      	adcs	r0, r7
 8001a30:	b2c0      	uxtb	r0, r0
 8001a32:	2d00      	cmp	r5, #0
 8001a34:	d117      	bne.n	8001a66 <__gedf2+0x76>
 8001a36:	465f      	mov	r7, fp
 8001a38:	433a      	orrs	r2, r7
 8001a3a:	d114      	bne.n	8001a66 <__gedf2+0x76>
 8001a3c:	464b      	mov	r3, r9
 8001a3e:	2000      	movs	r0, #0
 8001a40:	2b00      	cmp	r3, #0
 8001a42:	d00a      	beq.n	8001a5a <__gedf2+0x6a>
 8001a44:	e006      	b.n	8001a54 <__gedf2+0x64>
 8001a46:	2d00      	cmp	r5, #0
 8001a48:	d102      	bne.n	8001a50 <__gedf2+0x60>
 8001a4a:	4658      	mov	r0, fp
 8001a4c:	4302      	orrs	r2, r0
 8001a4e:	d001      	beq.n	8001a54 <__gedf2+0x64>
 8001a50:	4299      	cmp	r1, r3
 8001a52:	d018      	beq.n	8001a86 <__gedf2+0x96>
 8001a54:	4248      	negs	r0, r1
 8001a56:	2101      	movs	r1, #1
 8001a58:	4308      	orrs	r0, r1
 8001a5a:	bc3c      	pop	{r2, r3, r4, r5}
 8001a5c:	4690      	mov	r8, r2
 8001a5e:	4699      	mov	r9, r3
 8001a60:	46a2      	mov	sl, r4
 8001a62:	46ab      	mov	fp, r5
 8001a64:	bdf0      	pop	{r4, r5, r6, r7, pc}
 8001a66:	2800      	cmp	r0, #0
 8001a68:	d0f2      	beq.n	8001a50 <__gedf2+0x60>
 8001a6a:	2001      	movs	r0, #1
 8001a6c:	3b01      	subs	r3, #1
 8001a6e:	4318      	orrs	r0, r3
 8001a70:	e7f3      	b.n	8001a5a <__gedf2+0x6a>
 8001a72:	0037      	movs	r7, r6
 8001a74:	4307      	orrs	r7, r0
 8001a76:	d0d1      	beq.n	8001a1c <__gedf2+0x2c>
 8001a78:	2002      	movs	r0, #2
 8001a7a:	4240      	negs	r0, r0
 8001a7c:	e7ed      	b.n	8001a5a <__gedf2+0x6a>
 8001a7e:	465f      	mov	r7, fp
 8001a80:	4317      	orrs	r7, r2
 8001a82:	d0ce      	beq.n	8001a22 <__gedf2+0x32>
 8001a84:	e7f8      	b.n	8001a78 <__gedf2+0x88>
 8001a86:	42ac      	cmp	r4, r5
 8001a88:	dce4      	bgt.n	8001a54 <__gedf2+0x64>
 8001a8a:	da03      	bge.n	8001a94 <__gedf2+0xa4>
 8001a8c:	1e48      	subs	r0, r1, #1
 8001a8e:	2101      	movs	r1, #1
 8001a90:	4308      	orrs	r0, r1
 8001a92:	e7e2      	b.n	8001a5a <__gedf2+0x6a>
 8001a94:	455e      	cmp	r6, fp
 8001a96:	d8dd      	bhi.n	8001a54 <__gedf2+0x64>
 8001a98:	d006      	beq.n	8001aa8 <__gedf2+0xb8>
 8001a9a:	2000      	movs	r0, #0
 8001a9c:	455e      	cmp	r6, fp
 8001a9e:	d2dc      	bcs.n	8001a5a <__gedf2+0x6a>
 8001aa0:	2301      	movs	r3, #1
 8001aa2:	1e48      	subs	r0, r1, #1
 8001aa4:	4318      	orrs	r0, r3
 8001aa6:	e7d8      	b.n	8001a5a <__gedf2+0x6a>
 8001aa8:	45c4      	cmp	ip, r8
 8001aaa:	d8d3      	bhi.n	8001a54 <__gedf2+0x64>
 8001aac:	2000      	movs	r0, #0
 8001aae:	45c4      	cmp	ip, r8
 8001ab0:	d3f6      	bcc.n	8001aa0 <__gedf2+0xb0>
 8001ab2:	e7d2      	b.n	8001a5a <__gedf2+0x6a>
 8001ab4:	000007ff 	.word	0x000007ff

08001ab8 <__ledf2>:
 8001ab8:	b5f0      	push	{r4, r5, r6, r7, lr}
 8001aba:	464e      	mov	r6, r9
 8001abc:	4645      	mov	r5, r8
 8001abe:	46de      	mov	lr, fp
 8001ac0:	4657      	mov	r7, sl
 8001ac2:	005c      	lsls	r4, r3, #1
 8001ac4:	b5e0      	push	{r5, r6, r7, lr}
 8001ac6:	031f      	lsls	r7, r3, #12
 8001ac8:	0fdb      	lsrs	r3, r3, #31
 8001aca:	4699      	mov	r9, r3
 8001acc:	4b2a      	ldr	r3, [pc, #168]	; (8001b78 <__ledf2+0xc0>)
 8001ace:	030e      	lsls	r6, r1, #12
 8001ad0:	004d      	lsls	r5, r1, #1
 8001ad2:	0fc9      	lsrs	r1, r1, #31
 8001ad4:	4684      	mov	ip, r0
 8001ad6:	0b36      	lsrs	r6, r6, #12
 8001ad8:	0d6d      	lsrs	r5, r5, #21
 8001ada:	468b      	mov	fp, r1
 8001adc:	4690      	mov	r8, r2
 8001ade:	0b3f      	lsrs	r7, r7, #12
 8001ae0:	0d64      	lsrs	r4, r4, #21
 8001ae2:	429d      	cmp	r5, r3
 8001ae4:	d020      	beq.n	8001b28 <__ledf2+0x70>
 8001ae6:	4b24      	ldr	r3, [pc, #144]	; (8001b78 <__ledf2+0xc0>)
 8001ae8:	429c      	cmp	r4, r3
 8001aea:	d022      	beq.n	8001b32 <__ledf2+0x7a>
 8001aec:	2d00      	cmp	r5, #0
 8001aee:	d112      	bne.n	8001b16 <__ledf2+0x5e>
 8001af0:	4330      	orrs	r0, r6
 8001af2:	4243      	negs	r3, r0
 8001af4:	4143      	adcs	r3, r0
 8001af6:	b2db      	uxtb	r3, r3
 8001af8:	2c00      	cmp	r4, #0
 8001afa:	d01f      	beq.n	8001b3c <__ledf2+0x84>
 8001afc:	2b00      	cmp	r3, #0
 8001afe:	d00c      	beq.n	8001b1a <__ledf2+0x62>
 8001b00:	464b      	mov	r3, r9
 8001b02:	2001      	movs	r0, #1
 8001b04:	3b01      	subs	r3, #1
 8001b06:	4303      	orrs	r3, r0
 8001b08:	0018      	movs	r0, r3
 8001b0a:	bc3c      	pop	{r2, r3, r4, r5}
 8001b0c:	4690      	mov	r8, r2
 8001b0e:	4699      	mov	r9, r3
 8001b10:	46a2      	mov	sl, r4
 8001b12:	46ab      	mov	fp, r5
 8001b14:	bdf0      	pop	{r4, r5, r6, r7, pc}
 8001b16:	2c00      	cmp	r4, #0
 8001b18:	d016      	beq.n	8001b48 <__ledf2+0x90>
 8001b1a:	45cb      	cmp	fp, r9
 8001b1c:	d017      	beq.n	8001b4e <__ledf2+0x96>
 8001b1e:	465b      	mov	r3, fp
 8001b20:	4259      	negs	r1, r3
 8001b22:	2301      	movs	r3, #1
 8001b24:	430b      	orrs	r3, r1
 8001b26:	e7ef      	b.n	8001b08 <__ledf2+0x50>
 8001b28:	0031      	movs	r1, r6
 8001b2a:	2302      	movs	r3, #2
 8001b2c:	4301      	orrs	r1, r0
 8001b2e:	d1eb      	bne.n	8001b08 <__ledf2+0x50>
 8001b30:	e7d9      	b.n	8001ae6 <__ledf2+0x2e>
 8001b32:	0039      	movs	r1, r7
 8001b34:	2302      	movs	r3, #2
 8001b36:	4311      	orrs	r1, r2
 8001b38:	d1e6      	bne.n	8001b08 <__ledf2+0x50>
 8001b3a:	e7d7      	b.n	8001aec <__ledf2+0x34>
 8001b3c:	433a      	orrs	r2, r7
 8001b3e:	d1dd      	bne.n	8001afc <__ledf2+0x44>
 8001b40:	2300      	movs	r3, #0
 8001b42:	2800      	cmp	r0, #0
 8001b44:	d0e0      	beq.n	8001b08 <__ledf2+0x50>
 8001b46:	e7ea      	b.n	8001b1e <__ledf2+0x66>
 8001b48:	433a      	orrs	r2, r7
 8001b4a:	d1e6      	bne.n	8001b1a <__ledf2+0x62>
 8001b4c:	e7e7      	b.n	8001b1e <__ledf2+0x66>
 8001b4e:	42a5      	cmp	r5, r4
 8001b50:	dce5      	bgt.n	8001b1e <__ledf2+0x66>
 8001b52:	db05      	blt.n	8001b60 <__ledf2+0xa8>
 8001b54:	42be      	cmp	r6, r7
 8001b56:	d8e2      	bhi.n	8001b1e <__ledf2+0x66>
 8001b58:	d007      	beq.n	8001b6a <__ledf2+0xb2>
 8001b5a:	2300      	movs	r3, #0
 8001b5c:	42be      	cmp	r6, r7
 8001b5e:	d2d3      	bcs.n	8001b08 <__ledf2+0x50>
 8001b60:	4659      	mov	r1, fp
 8001b62:	2301      	movs	r3, #1
 8001b64:	3901      	subs	r1, #1
 8001b66:	430b      	orrs	r3, r1
 8001b68:	e7ce      	b.n	8001b08 <__ledf2+0x50>
 8001b6a:	45c4      	cmp	ip, r8
 8001b6c:	d8d7      	bhi.n	8001b1e <__ledf2+0x66>
 8001b6e:	2300      	movs	r3, #0
 8001b70:	45c4      	cmp	ip, r8
 8001b72:	d3f5      	bcc.n	8001b60 <__ledf2+0xa8>
 8001b74:	e7c8      	b.n	8001b08 <__ledf2+0x50>
 8001b76:	46c0      	nop			; (mov r8, r8)
 8001b78:	000007ff 	.word	0x000007ff

08001b7c <__aeabi_dmul>:
 8001b7c:	b5f0      	push	{r4, r5, r6, r7, lr}
 8001b7e:	4657      	mov	r7, sl
 8001b80:	4645      	mov	r5, r8
 8001b82:	46de      	mov	lr, fp
 8001b84:	464e      	mov	r6, r9
 8001b86:	b5e0      	push	{r5, r6, r7, lr}
 8001b88:	030c      	lsls	r4, r1, #12
 8001b8a:	4698      	mov	r8, r3
 8001b8c:	004e      	lsls	r6, r1, #1
 8001b8e:	0b23      	lsrs	r3, r4, #12
 8001b90:	b087      	sub	sp, #28
 8001b92:	0007      	movs	r7, r0
 8001b94:	4692      	mov	sl, r2
 8001b96:	469b      	mov	fp, r3
 8001b98:	0d76      	lsrs	r6, r6, #21
 8001b9a:	0fcd      	lsrs	r5, r1, #31
 8001b9c:	2e00      	cmp	r6, #0
 8001b9e:	d06b      	beq.n	8001c78 <__aeabi_dmul+0xfc>
 8001ba0:	4b6d      	ldr	r3, [pc, #436]	; (8001d58 <__aeabi_dmul+0x1dc>)
 8001ba2:	429e      	cmp	r6, r3
 8001ba4:	d035      	beq.n	8001c12 <__aeabi_dmul+0x96>
 8001ba6:	2480      	movs	r4, #128	; 0x80
 8001ba8:	465b      	mov	r3, fp
 8001baa:	0f42      	lsrs	r2, r0, #29
 8001bac:	0424      	lsls	r4, r4, #16
 8001bae:	00db      	lsls	r3, r3, #3
 8001bb0:	4314      	orrs	r4, r2
 8001bb2:	431c      	orrs	r4, r3
 8001bb4:	00c3      	lsls	r3, r0, #3
 8001bb6:	4699      	mov	r9, r3
 8001bb8:	4b68      	ldr	r3, [pc, #416]	; (8001d5c <__aeabi_dmul+0x1e0>)
 8001bba:	46a3      	mov	fp, r4
 8001bbc:	469c      	mov	ip, r3
 8001bbe:	2300      	movs	r3, #0
 8001bc0:	2700      	movs	r7, #0
 8001bc2:	4466      	add	r6, ip
 8001bc4:	9302      	str	r3, [sp, #8]
 8001bc6:	4643      	mov	r3, r8
 8001bc8:	031c      	lsls	r4, r3, #12
 8001bca:	005a      	lsls	r2, r3, #1
 8001bcc:	0fdb      	lsrs	r3, r3, #31
 8001bce:	4650      	mov	r0, sl
 8001bd0:	0b24      	lsrs	r4, r4, #12
 8001bd2:	0d52      	lsrs	r2, r2, #21
 8001bd4:	4698      	mov	r8, r3
 8001bd6:	d100      	bne.n	8001bda <__aeabi_dmul+0x5e>
 8001bd8:	e076      	b.n	8001cc8 <__aeabi_dmul+0x14c>
 8001bda:	4b5f      	ldr	r3, [pc, #380]	; (8001d58 <__aeabi_dmul+0x1dc>)
 8001bdc:	429a      	cmp	r2, r3
 8001bde:	d06d      	beq.n	8001cbc <__aeabi_dmul+0x140>
 8001be0:	2380      	movs	r3, #128	; 0x80
 8001be2:	0f41      	lsrs	r1, r0, #29
 8001be4:	041b      	lsls	r3, r3, #16
 8001be6:	430b      	orrs	r3, r1
 8001be8:	495c      	ldr	r1, [pc, #368]	; (8001d5c <__aeabi_dmul+0x1e0>)
 8001bea:	00e4      	lsls	r4, r4, #3
 8001bec:	468c      	mov	ip, r1
 8001bee:	431c      	orrs	r4, r3
 8001bf0:	00c3      	lsls	r3, r0, #3
 8001bf2:	2000      	movs	r0, #0
 8001bf4:	4462      	add	r2, ip
 8001bf6:	4641      	mov	r1, r8
 8001bf8:	18b6      	adds	r6, r6, r2
 8001bfa:	4069      	eors	r1, r5
 8001bfc:	1c72      	adds	r2, r6, #1
 8001bfe:	9101      	str	r1, [sp, #4]
 8001c00:	4694      	mov	ip, r2
 8001c02:	4307      	orrs	r7, r0
 8001c04:	2f0f      	cmp	r7, #15
 8001c06:	d900      	bls.n	8001c0a <__aeabi_dmul+0x8e>
 8001c08:	e0b0      	b.n	8001d6c <__aeabi_dmul+0x1f0>
 8001c0a:	4a55      	ldr	r2, [pc, #340]	; (8001d60 <__aeabi_dmul+0x1e4>)
 8001c0c:	00bf      	lsls	r7, r7, #2
 8001c0e:	59d2      	ldr	r2, [r2, r7]
 8001c10:	4697      	mov	pc, r2
 8001c12:	465b      	mov	r3, fp
 8001c14:	4303      	orrs	r3, r0
 8001c16:	4699      	mov	r9, r3
 8001c18:	d000      	beq.n	8001c1c <__aeabi_dmul+0xa0>
 8001c1a:	e087      	b.n	8001d2c <__aeabi_dmul+0x1b0>
 8001c1c:	2300      	movs	r3, #0
 8001c1e:	469b      	mov	fp, r3
 8001c20:	3302      	adds	r3, #2
 8001c22:	2708      	movs	r7, #8
 8001c24:	9302      	str	r3, [sp, #8]
 8001c26:	e7ce      	b.n	8001bc6 <__aeabi_dmul+0x4a>
 8001c28:	4642      	mov	r2, r8
 8001c2a:	9201      	str	r2, [sp, #4]
 8001c2c:	2802      	cmp	r0, #2
 8001c2e:	d067      	beq.n	8001d00 <__aeabi_dmul+0x184>
 8001c30:	2803      	cmp	r0, #3
 8001c32:	d100      	bne.n	8001c36 <__aeabi_dmul+0xba>
 8001c34:	e20e      	b.n	8002054 <__aeabi_dmul+0x4d8>
 8001c36:	2801      	cmp	r0, #1
 8001c38:	d000      	beq.n	8001c3c <__aeabi_dmul+0xc0>
 8001c3a:	e162      	b.n	8001f02 <__aeabi_dmul+0x386>
 8001c3c:	2300      	movs	r3, #0
 8001c3e:	2400      	movs	r4, #0
 8001c40:	2200      	movs	r2, #0
 8001c42:	4699      	mov	r9, r3
 8001c44:	9901      	ldr	r1, [sp, #4]
 8001c46:	4001      	ands	r1, r0
 8001c48:	b2cd      	uxtb	r5, r1
 8001c4a:	2100      	movs	r1, #0
 8001c4c:	0312      	lsls	r2, r2, #12
 8001c4e:	0d0b      	lsrs	r3, r1, #20
 8001c50:	0b12      	lsrs	r2, r2, #12
 8001c52:	051b      	lsls	r3, r3, #20
 8001c54:	4313      	orrs	r3, r2
 8001c56:	4a43      	ldr	r2, [pc, #268]	; (8001d64 <__aeabi_dmul+0x1e8>)
 8001c58:	0524      	lsls	r4, r4, #20
 8001c5a:	4013      	ands	r3, r2
 8001c5c:	431c      	orrs	r4, r3
 8001c5e:	0064      	lsls	r4, r4, #1
 8001c60:	07ed      	lsls	r5, r5, #31
 8001c62:	0864      	lsrs	r4, r4, #1
 8001c64:	432c      	orrs	r4, r5
 8001c66:	4648      	mov	r0, r9
 8001c68:	0021      	movs	r1, r4
 8001c6a:	b007      	add	sp, #28
 8001c6c:	bc3c      	pop	{r2, r3, r4, r5}
 8001c6e:	4690      	mov	r8, r2
 8001c70:	4699      	mov	r9, r3
 8001c72:	46a2      	mov	sl, r4
 8001c74:	46ab      	mov	fp, r5
 8001c76:	bdf0      	pop	{r4, r5, r6, r7, pc}
 8001c78:	4303      	orrs	r3, r0
 8001c7a:	4699      	mov	r9, r3
 8001c7c:	d04f      	beq.n	8001d1e <__aeabi_dmul+0x1a2>
 8001c7e:	465b      	mov	r3, fp
 8001c80:	2b00      	cmp	r3, #0
 8001c82:	d100      	bne.n	8001c86 <__aeabi_dmul+0x10a>
 8001c84:	e189      	b.n	8001f9a <__aeabi_dmul+0x41e>
 8001c86:	4658      	mov	r0, fp
 8001c88:	f000 fdea 	bl	8002860 <__clzsi2>
 8001c8c:	0003      	movs	r3, r0
 8001c8e:	3b0b      	subs	r3, #11
 8001c90:	2b1c      	cmp	r3, #28
 8001c92:	dd00      	ble.n	8001c96 <__aeabi_dmul+0x11a>
 8001c94:	e17a      	b.n	8001f8c <__aeabi_dmul+0x410>
 8001c96:	221d      	movs	r2, #29
 8001c98:	1ad3      	subs	r3, r2, r3
 8001c9a:	003a      	movs	r2, r7
 8001c9c:	0001      	movs	r1, r0
 8001c9e:	465c      	mov	r4, fp
 8001ca0:	40da      	lsrs	r2, r3
 8001ca2:	3908      	subs	r1, #8
 8001ca4:	408c      	lsls	r4, r1
 8001ca6:	0013      	movs	r3, r2
 8001ca8:	408f      	lsls	r7, r1
 8001caa:	4323      	orrs	r3, r4
 8001cac:	469b      	mov	fp, r3
 8001cae:	46b9      	mov	r9, r7
 8001cb0:	2300      	movs	r3, #0
 8001cb2:	4e2d      	ldr	r6, [pc, #180]	; (8001d68 <__aeabi_dmul+0x1ec>)
 8001cb4:	2700      	movs	r7, #0
 8001cb6:	1a36      	subs	r6, r6, r0
 8001cb8:	9302      	str	r3, [sp, #8]
 8001cba:	e784      	b.n	8001bc6 <__aeabi_dmul+0x4a>
 8001cbc:	4653      	mov	r3, sl
 8001cbe:	4323      	orrs	r3, r4
 8001cc0:	d12a      	bne.n	8001d18 <__aeabi_dmul+0x19c>
 8001cc2:	2400      	movs	r4, #0
 8001cc4:	2002      	movs	r0, #2
 8001cc6:	e796      	b.n	8001bf6 <__aeabi_dmul+0x7a>
 8001cc8:	4653      	mov	r3, sl
 8001cca:	4323      	orrs	r3, r4
 8001ccc:	d020      	beq.n	8001d10 <__aeabi_dmul+0x194>
 8001cce:	2c00      	cmp	r4, #0
 8001cd0:	d100      	bne.n	8001cd4 <__aeabi_dmul+0x158>
 8001cd2:	e157      	b.n	8001f84 <__aeabi_dmul+0x408>
 8001cd4:	0020      	movs	r0, r4
 8001cd6:	f000 fdc3 	bl	8002860 <__clzsi2>
 8001cda:	0003      	movs	r3, r0
 8001cdc:	3b0b      	subs	r3, #11
 8001cde:	2b1c      	cmp	r3, #28
 8001ce0:	dd00      	ble.n	8001ce4 <__aeabi_dmul+0x168>
 8001ce2:	e149      	b.n	8001f78 <__aeabi_dmul+0x3fc>
 8001ce4:	211d      	movs	r1, #29
 8001ce6:	1acb      	subs	r3, r1, r3
 8001ce8:	4651      	mov	r1, sl
 8001cea:	0002      	movs	r2, r0
 8001cec:	40d9      	lsrs	r1, r3
 8001cee:	4653      	mov	r3, sl
 8001cf0:	3a08      	subs	r2, #8
 8001cf2:	4094      	lsls	r4, r2
 8001cf4:	4093      	lsls	r3, r2
 8001cf6:	430c      	orrs	r4, r1
 8001cf8:	4a1b      	ldr	r2, [pc, #108]	; (8001d68 <__aeabi_dmul+0x1ec>)
 8001cfa:	1a12      	subs	r2, r2, r0
 8001cfc:	2000      	movs	r0, #0
 8001cfe:	e77a      	b.n	8001bf6 <__aeabi_dmul+0x7a>
 8001d00:	2501      	movs	r5, #1
 8001d02:	9b01      	ldr	r3, [sp, #4]
 8001d04:	4c14      	ldr	r4, [pc, #80]	; (8001d58 <__aeabi_dmul+0x1dc>)
 8001d06:	401d      	ands	r5, r3
 8001d08:	2300      	movs	r3, #0
 8001d0a:	2200      	movs	r2, #0
 8001d0c:	4699      	mov	r9, r3
 8001d0e:	e79c      	b.n	8001c4a <__aeabi_dmul+0xce>
 8001d10:	2400      	movs	r4, #0
 8001d12:	2200      	movs	r2, #0
 8001d14:	2001      	movs	r0, #1
 8001d16:	e76e      	b.n	8001bf6 <__aeabi_dmul+0x7a>
 8001d18:	4653      	mov	r3, sl
 8001d1a:	2003      	movs	r0, #3
 8001d1c:	e76b      	b.n	8001bf6 <__aeabi_dmul+0x7a>
 8001d1e:	2300      	movs	r3, #0
 8001d20:	469b      	mov	fp, r3
 8001d22:	3301      	adds	r3, #1
 8001d24:	2704      	movs	r7, #4
 8001d26:	2600      	movs	r6, #0
 8001d28:	9302      	str	r3, [sp, #8]
 8001d2a:	e74c      	b.n	8001bc6 <__aeabi_dmul+0x4a>
 8001d2c:	2303      	movs	r3, #3
 8001d2e:	4681      	mov	r9, r0
 8001d30:	270c      	movs	r7, #12
 8001d32:	9302      	str	r3, [sp, #8]
 8001d34:	e747      	b.n	8001bc6 <__aeabi_dmul+0x4a>
 8001d36:	2280      	movs	r2, #128	; 0x80
 8001d38:	2300      	movs	r3, #0
 8001d3a:	2500      	movs	r5, #0
 8001d3c:	0312      	lsls	r2, r2, #12
 8001d3e:	4699      	mov	r9, r3
 8001d40:	4c05      	ldr	r4, [pc, #20]	; (8001d58 <__aeabi_dmul+0x1dc>)
 8001d42:	e782      	b.n	8001c4a <__aeabi_dmul+0xce>
 8001d44:	465c      	mov	r4, fp
 8001d46:	464b      	mov	r3, r9
 8001d48:	9802      	ldr	r0, [sp, #8]
 8001d4a:	e76f      	b.n	8001c2c <__aeabi_dmul+0xb0>
 8001d4c:	465c      	mov	r4, fp
 8001d4e:	464b      	mov	r3, r9
 8001d50:	9501      	str	r5, [sp, #4]
 8001d52:	9802      	ldr	r0, [sp, #8]
 8001d54:	e76a      	b.n	8001c2c <__aeabi_dmul+0xb0>
 8001d56:	46c0      	nop			; (mov r8, r8)
 8001d58:	000007ff 	.word	0x000007ff
 8001d5c:	fffffc01 	.word	0xfffffc01
 8001d60:	08004260 	.word	0x08004260
 8001d64:	800fffff 	.word	0x800fffff
 8001d68:	fffffc0d 	.word	0xfffffc0d
 8001d6c:	464a      	mov	r2, r9
 8001d6e:	4649      	mov	r1, r9
 8001d70:	0c17      	lsrs	r7, r2, #16
 8001d72:	0c1a      	lsrs	r2, r3, #16
 8001d74:	041b      	lsls	r3, r3, #16
 8001d76:	0c1b      	lsrs	r3, r3, #16
 8001d78:	0408      	lsls	r0, r1, #16
 8001d7a:	0019      	movs	r1, r3
 8001d7c:	0c00      	lsrs	r0, r0, #16
 8001d7e:	4341      	muls	r1, r0
 8001d80:	0015      	movs	r5, r2
 8001d82:	4688      	mov	r8, r1
 8001d84:	0019      	movs	r1, r3
 8001d86:	437d      	muls	r5, r7
 8001d88:	4379      	muls	r1, r7
 8001d8a:	9503      	str	r5, [sp, #12]
 8001d8c:	4689      	mov	r9, r1
 8001d8e:	0029      	movs	r1, r5
 8001d90:	0015      	movs	r5, r2
 8001d92:	4345      	muls	r5, r0
 8001d94:	444d      	add	r5, r9
 8001d96:	9502      	str	r5, [sp, #8]
 8001d98:	4645      	mov	r5, r8
 8001d9a:	0c2d      	lsrs	r5, r5, #16
 8001d9c:	46aa      	mov	sl, r5
 8001d9e:	9d02      	ldr	r5, [sp, #8]
 8001da0:	4455      	add	r5, sl
 8001da2:	45a9      	cmp	r9, r5
 8001da4:	d906      	bls.n	8001db4 <__aeabi_dmul+0x238>
 8001da6:	468a      	mov	sl, r1
 8001da8:	2180      	movs	r1, #128	; 0x80
 8001daa:	0249      	lsls	r1, r1, #9
 8001dac:	4689      	mov	r9, r1
 8001dae:	44ca      	add	sl, r9
 8001db0:	4651      	mov	r1, sl
 8001db2:	9103      	str	r1, [sp, #12]
 8001db4:	0c29      	lsrs	r1, r5, #16
 8001db6:	9104      	str	r1, [sp, #16]
 8001db8:	4641      	mov	r1, r8
 8001dba:	0409      	lsls	r1, r1, #16
 8001dbc:	042d      	lsls	r5, r5, #16
 8001dbe:	0c09      	lsrs	r1, r1, #16
 8001dc0:	4688      	mov	r8, r1
 8001dc2:	0029      	movs	r1, r5
 8001dc4:	0c25      	lsrs	r5, r4, #16
 8001dc6:	0424      	lsls	r4, r4, #16
 8001dc8:	4441      	add	r1, r8
 8001dca:	0c24      	lsrs	r4, r4, #16
 8001dcc:	9105      	str	r1, [sp, #20]
 8001dce:	0021      	movs	r1, r4
 8001dd0:	4341      	muls	r1, r0
 8001dd2:	4688      	mov	r8, r1
 8001dd4:	0021      	movs	r1, r4
 8001dd6:	4379      	muls	r1, r7
 8001dd8:	468a      	mov	sl, r1
 8001dda:	4368      	muls	r0, r5
 8001ddc:	4641      	mov	r1, r8
 8001dde:	4450      	add	r0, sl
 8001de0:	4681      	mov	r9, r0
 8001de2:	0c08      	lsrs	r0, r1, #16
 8001de4:	4448      	add	r0, r9
 8001de6:	436f      	muls	r7, r5
 8001de8:	4582      	cmp	sl, r0
 8001dea:	d903      	bls.n	8001df4 <__aeabi_dmul+0x278>
 8001dec:	2180      	movs	r1, #128	; 0x80
 8001dee:	0249      	lsls	r1, r1, #9
 8001df0:	4689      	mov	r9, r1
 8001df2:	444f      	add	r7, r9
 8001df4:	0c01      	lsrs	r1, r0, #16
 8001df6:	4689      	mov	r9, r1
 8001df8:	0039      	movs	r1, r7
 8001dfa:	4449      	add	r1, r9
 8001dfc:	9102      	str	r1, [sp, #8]
 8001dfe:	4641      	mov	r1, r8
 8001e00:	040f      	lsls	r7, r1, #16
 8001e02:	9904      	ldr	r1, [sp, #16]
 8001e04:	0c3f      	lsrs	r7, r7, #16
 8001e06:	4688      	mov	r8, r1
 8001e08:	0400      	lsls	r0, r0, #16
 8001e0a:	19c0      	adds	r0, r0, r7
 8001e0c:	4480      	add	r8, r0
 8001e0e:	4641      	mov	r1, r8
 8001e10:	9104      	str	r1, [sp, #16]
 8001e12:	4659      	mov	r1, fp
 8001e14:	0c0f      	lsrs	r7, r1, #16
 8001e16:	0409      	lsls	r1, r1, #16
 8001e18:	0c09      	lsrs	r1, r1, #16
 8001e1a:	4688      	mov	r8, r1
 8001e1c:	4359      	muls	r1, r3
 8001e1e:	468a      	mov	sl, r1
 8001e20:	0039      	movs	r1, r7
 8001e22:	4351      	muls	r1, r2
 8001e24:	4689      	mov	r9, r1
 8001e26:	4641      	mov	r1, r8
 8001e28:	434a      	muls	r2, r1
 8001e2a:	4651      	mov	r1, sl
 8001e2c:	0c09      	lsrs	r1, r1, #16
 8001e2e:	468b      	mov	fp, r1
 8001e30:	437b      	muls	r3, r7
 8001e32:	18d2      	adds	r2, r2, r3
 8001e34:	445a      	add	r2, fp
 8001e36:	4293      	cmp	r3, r2
 8001e38:	d903      	bls.n	8001e42 <__aeabi_dmul+0x2c6>
 8001e3a:	2380      	movs	r3, #128	; 0x80
 8001e3c:	025b      	lsls	r3, r3, #9
 8001e3e:	469b      	mov	fp, r3
 8001e40:	44d9      	add	r9, fp
 8001e42:	4651      	mov	r1, sl
 8001e44:	0409      	lsls	r1, r1, #16
 8001e46:	0c09      	lsrs	r1, r1, #16
 8001e48:	468a      	mov	sl, r1
 8001e4a:	4641      	mov	r1, r8
 8001e4c:	4361      	muls	r1, r4
 8001e4e:	437c      	muls	r4, r7
 8001e50:	0c13      	lsrs	r3, r2, #16
 8001e52:	0412      	lsls	r2, r2, #16
 8001e54:	444b      	add	r3, r9
 8001e56:	4452      	add	r2, sl
 8001e58:	46a1      	mov	r9, r4
 8001e5a:	468a      	mov	sl, r1
 8001e5c:	003c      	movs	r4, r7
 8001e5e:	4641      	mov	r1, r8
 8001e60:	436c      	muls	r4, r5
 8001e62:	434d      	muls	r5, r1
 8001e64:	4651      	mov	r1, sl
 8001e66:	444d      	add	r5, r9
 8001e68:	0c0f      	lsrs	r7, r1, #16
 8001e6a:	197d      	adds	r5, r7, r5
 8001e6c:	45a9      	cmp	r9, r5
 8001e6e:	d903      	bls.n	8001e78 <__aeabi_dmul+0x2fc>
 8001e70:	2180      	movs	r1, #128	; 0x80
 8001e72:	0249      	lsls	r1, r1, #9
 8001e74:	4688      	mov	r8, r1
 8001e76:	4444      	add	r4, r8
 8001e78:	9f04      	ldr	r7, [sp, #16]
 8001e7a:	9903      	ldr	r1, [sp, #12]
 8001e7c:	46b8      	mov	r8, r7
 8001e7e:	4441      	add	r1, r8
 8001e80:	468b      	mov	fp, r1
 8001e82:	4583      	cmp	fp, r0
 8001e84:	4180      	sbcs	r0, r0
 8001e86:	4241      	negs	r1, r0
 8001e88:	4688      	mov	r8, r1
 8001e8a:	4651      	mov	r1, sl
 8001e8c:	0408      	lsls	r0, r1, #16
 8001e8e:	042f      	lsls	r7, r5, #16
 8001e90:	0c00      	lsrs	r0, r0, #16
 8001e92:	183f      	adds	r7, r7, r0
 8001e94:	4658      	mov	r0, fp
 8001e96:	9902      	ldr	r1, [sp, #8]
 8001e98:	1810      	adds	r0, r2, r0
 8001e9a:	4689      	mov	r9, r1
 8001e9c:	4290      	cmp	r0, r2
 8001e9e:	4192      	sbcs	r2, r2
 8001ea0:	444f      	add	r7, r9
 8001ea2:	46ba      	mov	sl, r7
 8001ea4:	4252      	negs	r2, r2
 8001ea6:	4699      	mov	r9, r3
 8001ea8:	4693      	mov	fp, r2
 8001eaa:	44c2      	add	sl, r8
 8001eac:	44d1      	add	r9, sl
 8001eae:	44cb      	add	fp, r9
 8001eb0:	428f      	cmp	r7, r1
 8001eb2:	41bf      	sbcs	r7, r7
 8001eb4:	45c2      	cmp	sl, r8
 8001eb6:	4189      	sbcs	r1, r1
 8001eb8:	4599      	cmp	r9, r3
 8001eba:	419b      	sbcs	r3, r3
 8001ebc:	4593      	cmp	fp, r2
 8001ebe:	4192      	sbcs	r2, r2
 8001ec0:	427f      	negs	r7, r7
 8001ec2:	4249      	negs	r1, r1
 8001ec4:	0c2d      	lsrs	r5, r5, #16
 8001ec6:	4252      	negs	r2, r2
 8001ec8:	430f      	orrs	r7, r1
 8001eca:	425b      	negs	r3, r3
 8001ecc:	4313      	orrs	r3, r2
 8001ece:	197f      	adds	r7, r7, r5
 8001ed0:	18ff      	adds	r7, r7, r3
 8001ed2:	465b      	mov	r3, fp
 8001ed4:	193c      	adds	r4, r7, r4
 8001ed6:	0ddb      	lsrs	r3, r3, #23
 8001ed8:	9a05      	ldr	r2, [sp, #20]
 8001eda:	0264      	lsls	r4, r4, #9
 8001edc:	431c      	orrs	r4, r3
 8001ede:	0243      	lsls	r3, r0, #9
 8001ee0:	4313      	orrs	r3, r2
 8001ee2:	1e5d      	subs	r5, r3, #1
 8001ee4:	41ab      	sbcs	r3, r5
 8001ee6:	465a      	mov	r2, fp
 8001ee8:	0dc0      	lsrs	r0, r0, #23
 8001eea:	4303      	orrs	r3, r0
 8001eec:	0252      	lsls	r2, r2, #9
 8001eee:	4313      	orrs	r3, r2
 8001ef0:	01e2      	lsls	r2, r4, #7
 8001ef2:	d556      	bpl.n	8001fa2 <__aeabi_dmul+0x426>
 8001ef4:	2001      	movs	r0, #1
 8001ef6:	085a      	lsrs	r2, r3, #1
 8001ef8:	4003      	ands	r3, r0
 8001efa:	4313      	orrs	r3, r2
 8001efc:	07e2      	lsls	r2, r4, #31
 8001efe:	4313      	orrs	r3, r2
 8001f00:	0864      	lsrs	r4, r4, #1
 8001f02:	485a      	ldr	r0, [pc, #360]	; (800206c <__aeabi_dmul+0x4f0>)
 8001f04:	4460      	add	r0, ip
 8001f06:	2800      	cmp	r0, #0
 8001f08:	dd4d      	ble.n	8001fa6 <__aeabi_dmul+0x42a>
 8001f0a:	075a      	lsls	r2, r3, #29
 8001f0c:	d009      	beq.n	8001f22 <__aeabi_dmul+0x3a6>
 8001f0e:	220f      	movs	r2, #15
 8001f10:	401a      	ands	r2, r3
 8001f12:	2a04      	cmp	r2, #4
 8001f14:	d005      	beq.n	8001f22 <__aeabi_dmul+0x3a6>
 8001f16:	1d1a      	adds	r2, r3, #4
 8001f18:	429a      	cmp	r2, r3
 8001f1a:	419b      	sbcs	r3, r3
 8001f1c:	425b      	negs	r3, r3
 8001f1e:	18e4      	adds	r4, r4, r3
 8001f20:	0013      	movs	r3, r2
 8001f22:	01e2      	lsls	r2, r4, #7
 8001f24:	d504      	bpl.n	8001f30 <__aeabi_dmul+0x3b4>
 8001f26:	2080      	movs	r0, #128	; 0x80
 8001f28:	4a51      	ldr	r2, [pc, #324]	; (8002070 <__aeabi_dmul+0x4f4>)
 8001f2a:	00c0      	lsls	r0, r0, #3
 8001f2c:	4014      	ands	r4, r2
 8001f2e:	4460      	add	r0, ip
 8001f30:	4a50      	ldr	r2, [pc, #320]	; (8002074 <__aeabi_dmul+0x4f8>)
 8001f32:	4290      	cmp	r0, r2
 8001f34:	dd00      	ble.n	8001f38 <__aeabi_dmul+0x3bc>
 8001f36:	e6e3      	b.n	8001d00 <__aeabi_dmul+0x184>
 8001f38:	2501      	movs	r5, #1
 8001f3a:	08db      	lsrs	r3, r3, #3
 8001f3c:	0762      	lsls	r2, r4, #29
 8001f3e:	431a      	orrs	r2, r3
 8001f40:	0264      	lsls	r4, r4, #9
 8001f42:	9b01      	ldr	r3, [sp, #4]
 8001f44:	4691      	mov	r9, r2
 8001f46:	0b22      	lsrs	r2, r4, #12
 8001f48:	0544      	lsls	r4, r0, #21
 8001f4a:	0d64      	lsrs	r4, r4, #21
 8001f4c:	401d      	ands	r5, r3
 8001f4e:	e67c      	b.n	8001c4a <__aeabi_dmul+0xce>
 8001f50:	2280      	movs	r2, #128	; 0x80
 8001f52:	4659      	mov	r1, fp
 8001f54:	0312      	lsls	r2, r2, #12
 8001f56:	4211      	tst	r1, r2
 8001f58:	d008      	beq.n	8001f6c <__aeabi_dmul+0x3f0>
 8001f5a:	4214      	tst	r4, r2
 8001f5c:	d106      	bne.n	8001f6c <__aeabi_dmul+0x3f0>
 8001f5e:	4322      	orrs	r2, r4
 8001f60:	0312      	lsls	r2, r2, #12
 8001f62:	0b12      	lsrs	r2, r2, #12
 8001f64:	4645      	mov	r5, r8
 8001f66:	4699      	mov	r9, r3
 8001f68:	4c43      	ldr	r4, [pc, #268]	; (8002078 <__aeabi_dmul+0x4fc>)
 8001f6a:	e66e      	b.n	8001c4a <__aeabi_dmul+0xce>
 8001f6c:	465b      	mov	r3, fp
 8001f6e:	431a      	orrs	r2, r3
 8001f70:	0312      	lsls	r2, r2, #12
 8001f72:	0b12      	lsrs	r2, r2, #12
 8001f74:	4c40      	ldr	r4, [pc, #256]	; (8002078 <__aeabi_dmul+0x4fc>)
 8001f76:	e668      	b.n	8001c4a <__aeabi_dmul+0xce>
 8001f78:	0003      	movs	r3, r0
 8001f7a:	4654      	mov	r4, sl
 8001f7c:	3b28      	subs	r3, #40	; 0x28
 8001f7e:	409c      	lsls	r4, r3
 8001f80:	2300      	movs	r3, #0
 8001f82:	e6b9      	b.n	8001cf8 <__aeabi_dmul+0x17c>
 8001f84:	f000 fc6c 	bl	8002860 <__clzsi2>
 8001f88:	3020      	adds	r0, #32
 8001f8a:	e6a6      	b.n	8001cda <__aeabi_dmul+0x15e>
 8001f8c:	0003      	movs	r3, r0
 8001f8e:	3b28      	subs	r3, #40	; 0x28
 8001f90:	409f      	lsls	r7, r3
 8001f92:	2300      	movs	r3, #0
 8001f94:	46bb      	mov	fp, r7
 8001f96:	4699      	mov	r9, r3
 8001f98:	e68a      	b.n	8001cb0 <__aeabi_dmul+0x134>
 8001f9a:	f000 fc61 	bl	8002860 <__clzsi2>
 8001f9e:	3020      	adds	r0, #32
 8001fa0:	e674      	b.n	8001c8c <__aeabi_dmul+0x110>
 8001fa2:	46b4      	mov	ip, r6
 8001fa4:	e7ad      	b.n	8001f02 <__aeabi_dmul+0x386>
 8001fa6:	2501      	movs	r5, #1
 8001fa8:	1a2a      	subs	r2, r5, r0
 8001faa:	2a38      	cmp	r2, #56	; 0x38
 8001fac:	dd06      	ble.n	8001fbc <__aeabi_dmul+0x440>
 8001fae:	9b01      	ldr	r3, [sp, #4]
 8001fb0:	2400      	movs	r4, #0
 8001fb2:	401d      	ands	r5, r3
 8001fb4:	2300      	movs	r3, #0
 8001fb6:	2200      	movs	r2, #0
 8001fb8:	4699      	mov	r9, r3
 8001fba:	e646      	b.n	8001c4a <__aeabi_dmul+0xce>
 8001fbc:	2a1f      	cmp	r2, #31
 8001fbe:	dc21      	bgt.n	8002004 <__aeabi_dmul+0x488>
 8001fc0:	2520      	movs	r5, #32
 8001fc2:	0020      	movs	r0, r4
 8001fc4:	1aad      	subs	r5, r5, r2
 8001fc6:	001e      	movs	r6, r3
 8001fc8:	40ab      	lsls	r3, r5
 8001fca:	40a8      	lsls	r0, r5
 8001fcc:	40d6      	lsrs	r6, r2
 8001fce:	1e5d      	subs	r5, r3, #1
 8001fd0:	41ab      	sbcs	r3, r5
 8001fd2:	4330      	orrs	r0, r6
 8001fd4:	4318      	orrs	r0, r3
 8001fd6:	40d4      	lsrs	r4, r2
 8001fd8:	0743      	lsls	r3, r0, #29
 8001fda:	d009      	beq.n	8001ff0 <__aeabi_dmul+0x474>
 8001fdc:	230f      	movs	r3, #15
 8001fde:	4003      	ands	r3, r0
 8001fe0:	2b04      	cmp	r3, #4
 8001fe2:	d005      	beq.n	8001ff0 <__aeabi_dmul+0x474>
 8001fe4:	0003      	movs	r3, r0
 8001fe6:	1d18      	adds	r0, r3, #4
 8001fe8:	4298      	cmp	r0, r3
 8001fea:	419b      	sbcs	r3, r3
 8001fec:	425b      	negs	r3, r3
 8001fee:	18e4      	adds	r4, r4, r3
 8001ff0:	0223      	lsls	r3, r4, #8
 8001ff2:	d521      	bpl.n	8002038 <__aeabi_dmul+0x4bc>
 8001ff4:	2501      	movs	r5, #1
 8001ff6:	9b01      	ldr	r3, [sp, #4]
 8001ff8:	2401      	movs	r4, #1
 8001ffa:	401d      	ands	r5, r3
 8001ffc:	2300      	movs	r3, #0
 8001ffe:	2200      	movs	r2, #0
 8002000:	4699      	mov	r9, r3
 8002002:	e622      	b.n	8001c4a <__aeabi_dmul+0xce>
 8002004:	251f      	movs	r5, #31
 8002006:	0021      	movs	r1, r4
 8002008:	426d      	negs	r5, r5
 800200a:	1a28      	subs	r0, r5, r0
 800200c:	40c1      	lsrs	r1, r0
 800200e:	0008      	movs	r0, r1
 8002010:	2a20      	cmp	r2, #32
 8002012:	d01d      	beq.n	8002050 <__aeabi_dmul+0x4d4>
 8002014:	355f      	adds	r5, #95	; 0x5f
 8002016:	1aaa      	subs	r2, r5, r2
 8002018:	4094      	lsls	r4, r2
 800201a:	4323      	orrs	r3, r4
 800201c:	1e5c      	subs	r4, r3, #1
 800201e:	41a3      	sbcs	r3, r4
 8002020:	2507      	movs	r5, #7
 8002022:	4303      	orrs	r3, r0
 8002024:	401d      	ands	r5, r3
 8002026:	2200      	movs	r2, #0
 8002028:	2d00      	cmp	r5, #0
 800202a:	d009      	beq.n	8002040 <__aeabi_dmul+0x4c4>
 800202c:	220f      	movs	r2, #15
 800202e:	2400      	movs	r4, #0
 8002030:	401a      	ands	r2, r3
 8002032:	0018      	movs	r0, r3
 8002034:	2a04      	cmp	r2, #4
 8002036:	d1d6      	bne.n	8001fe6 <__aeabi_dmul+0x46a>
 8002038:	0003      	movs	r3, r0
 800203a:	0765      	lsls	r5, r4, #29
 800203c:	0264      	lsls	r4, r4, #9
 800203e:	0b22      	lsrs	r2, r4, #12
 8002040:	08db      	lsrs	r3, r3, #3
 8002042:	432b      	orrs	r3, r5
 8002044:	2501      	movs	r5, #1
 8002046:	4699      	mov	r9, r3
 8002048:	9b01      	ldr	r3, [sp, #4]
 800204a:	2400      	movs	r4, #0
 800204c:	401d      	ands	r5, r3
 800204e:	e5fc      	b.n	8001c4a <__aeabi_dmul+0xce>
 8002050:	2400      	movs	r4, #0
 8002052:	e7e2      	b.n	800201a <__aeabi_dmul+0x49e>
 8002054:	2280      	movs	r2, #128	; 0x80
 8002056:	2501      	movs	r5, #1
 8002058:	0312      	lsls	r2, r2, #12
 800205a:	4322      	orrs	r2, r4
 800205c:	9901      	ldr	r1, [sp, #4]
 800205e:	0312      	lsls	r2, r2, #12
 8002060:	0b12      	lsrs	r2, r2, #12
 8002062:	400d      	ands	r5, r1
 8002064:	4699      	mov	r9, r3
 8002066:	4c04      	ldr	r4, [pc, #16]	; (8002078 <__aeabi_dmul+0x4fc>)
 8002068:	e5ef      	b.n	8001c4a <__aeabi_dmul+0xce>
 800206a:	46c0      	nop			; (mov r8, r8)
 800206c:	000003ff 	.word	0x000003ff
 8002070:	feffffff 	.word	0xfeffffff
 8002074:	000007fe 	.word	0x000007fe
 8002078:	000007ff 	.word	0x000007ff

0800207c <__aeabi_dsub>:
 800207c:	b5f0      	push	{r4, r5, r6, r7, lr}
 800207e:	4646      	mov	r6, r8
 8002080:	46d6      	mov	lr, sl
 8002082:	464f      	mov	r7, r9
 8002084:	030c      	lsls	r4, r1, #12
 8002086:	b5c0      	push	{r6, r7, lr}
 8002088:	0fcd      	lsrs	r5, r1, #31
 800208a:	004e      	lsls	r6, r1, #1
 800208c:	0a61      	lsrs	r1, r4, #9
 800208e:	0f44      	lsrs	r4, r0, #29
 8002090:	430c      	orrs	r4, r1
 8002092:	00c1      	lsls	r1, r0, #3
 8002094:	0058      	lsls	r0, r3, #1
 8002096:	0d40      	lsrs	r0, r0, #21
 8002098:	4684      	mov	ip, r0
 800209a:	468a      	mov	sl, r1
 800209c:	000f      	movs	r7, r1
 800209e:	0319      	lsls	r1, r3, #12
 80020a0:	0f50      	lsrs	r0, r2, #29
 80020a2:	0a49      	lsrs	r1, r1, #9
 80020a4:	4301      	orrs	r1, r0
 80020a6:	48c6      	ldr	r0, [pc, #792]	; (80023c0 <__aeabi_dsub+0x344>)
 80020a8:	0d76      	lsrs	r6, r6, #21
 80020aa:	46a8      	mov	r8, r5
 80020ac:	0fdb      	lsrs	r3, r3, #31
 80020ae:	00d2      	lsls	r2, r2, #3
 80020b0:	4584      	cmp	ip, r0
 80020b2:	d100      	bne.n	80020b6 <__aeabi_dsub+0x3a>
 80020b4:	e0d8      	b.n	8002268 <__aeabi_dsub+0x1ec>
 80020b6:	2001      	movs	r0, #1
 80020b8:	4043      	eors	r3, r0
 80020ba:	42ab      	cmp	r3, r5
 80020bc:	d100      	bne.n	80020c0 <__aeabi_dsub+0x44>
 80020be:	e0a6      	b.n	800220e <__aeabi_dsub+0x192>
 80020c0:	4660      	mov	r0, ip
 80020c2:	1a35      	subs	r5, r6, r0
 80020c4:	2d00      	cmp	r5, #0
 80020c6:	dc00      	bgt.n	80020ca <__aeabi_dsub+0x4e>
 80020c8:	e105      	b.n	80022d6 <__aeabi_dsub+0x25a>
 80020ca:	2800      	cmp	r0, #0
 80020cc:	d110      	bne.n	80020f0 <__aeabi_dsub+0x74>
 80020ce:	000b      	movs	r3, r1
 80020d0:	4313      	orrs	r3, r2
 80020d2:	d100      	bne.n	80020d6 <__aeabi_dsub+0x5a>
 80020d4:	e0d7      	b.n	8002286 <__aeabi_dsub+0x20a>
 80020d6:	1e6b      	subs	r3, r5, #1
 80020d8:	2b00      	cmp	r3, #0
 80020da:	d000      	beq.n	80020de <__aeabi_dsub+0x62>
 80020dc:	e14b      	b.n	8002376 <__aeabi_dsub+0x2fa>
 80020de:	4653      	mov	r3, sl
 80020e0:	1a9f      	subs	r7, r3, r2
 80020e2:	45ba      	cmp	sl, r7
 80020e4:	4180      	sbcs	r0, r0
 80020e6:	1a64      	subs	r4, r4, r1
 80020e8:	4240      	negs	r0, r0
 80020ea:	1a24      	subs	r4, r4, r0
 80020ec:	2601      	movs	r6, #1
 80020ee:	e01e      	b.n	800212e <__aeabi_dsub+0xb2>
 80020f0:	4bb3      	ldr	r3, [pc, #716]	; (80023c0 <__aeabi_dsub+0x344>)
 80020f2:	429e      	cmp	r6, r3
 80020f4:	d048      	beq.n	8002188 <__aeabi_dsub+0x10c>
 80020f6:	2380      	movs	r3, #128	; 0x80
 80020f8:	041b      	lsls	r3, r3, #16
 80020fa:	4319      	orrs	r1, r3
 80020fc:	2d38      	cmp	r5, #56	; 0x38
 80020fe:	dd00      	ble.n	8002102 <__aeabi_dsub+0x86>
 8002100:	e119      	b.n	8002336 <__aeabi_dsub+0x2ba>
 8002102:	2d1f      	cmp	r5, #31
 8002104:	dd00      	ble.n	8002108 <__aeabi_dsub+0x8c>
 8002106:	e14c      	b.n	80023a2 <__aeabi_dsub+0x326>
 8002108:	2320      	movs	r3, #32
 800210a:	000f      	movs	r7, r1
 800210c:	1b5b      	subs	r3, r3, r5
 800210e:	0010      	movs	r0, r2
 8002110:	409a      	lsls	r2, r3
 8002112:	409f      	lsls	r7, r3
 8002114:	40e8      	lsrs	r0, r5
 8002116:	1e53      	subs	r3, r2, #1
 8002118:	419a      	sbcs	r2, r3
 800211a:	40e9      	lsrs	r1, r5
 800211c:	4307      	orrs	r7, r0
 800211e:	4317      	orrs	r7, r2
 8002120:	4653      	mov	r3, sl
 8002122:	1bdf      	subs	r7, r3, r7
 8002124:	1a61      	subs	r1, r4, r1
 8002126:	45ba      	cmp	sl, r7
 8002128:	41a4      	sbcs	r4, r4
 800212a:	4264      	negs	r4, r4
 800212c:	1b0c      	subs	r4, r1, r4
 800212e:	0223      	lsls	r3, r4, #8
 8002130:	d400      	bmi.n	8002134 <__aeabi_dsub+0xb8>
 8002132:	e0c5      	b.n	80022c0 <__aeabi_dsub+0x244>
 8002134:	0264      	lsls	r4, r4, #9
 8002136:	0a65      	lsrs	r5, r4, #9
 8002138:	2d00      	cmp	r5, #0
 800213a:	d100      	bne.n	800213e <__aeabi_dsub+0xc2>
 800213c:	e0f6      	b.n	800232c <__aeabi_dsub+0x2b0>
 800213e:	0028      	movs	r0, r5
 8002140:	f000 fb8e 	bl	8002860 <__clzsi2>
 8002144:	0003      	movs	r3, r0
 8002146:	3b08      	subs	r3, #8
 8002148:	2b1f      	cmp	r3, #31
 800214a:	dd00      	ble.n	800214e <__aeabi_dsub+0xd2>
 800214c:	e0e9      	b.n	8002322 <__aeabi_dsub+0x2a6>
 800214e:	2220      	movs	r2, #32
 8002150:	003c      	movs	r4, r7
 8002152:	1ad2      	subs	r2, r2, r3
 8002154:	409d      	lsls	r5, r3
 8002156:	40d4      	lsrs	r4, r2
 8002158:	409f      	lsls	r7, r3
 800215a:	4325      	orrs	r5, r4
 800215c:	429e      	cmp	r6, r3
 800215e:	dd00      	ble.n	8002162 <__aeabi_dsub+0xe6>
 8002160:	e0db      	b.n	800231a <__aeabi_dsub+0x29e>
 8002162:	1b9e      	subs	r6, r3, r6
 8002164:	1c73      	adds	r3, r6, #1
 8002166:	2b1f      	cmp	r3, #31
 8002168:	dd00      	ble.n	800216c <__aeabi_dsub+0xf0>
 800216a:	e10a      	b.n	8002382 <__aeabi_dsub+0x306>
 800216c:	2220      	movs	r2, #32
 800216e:	0038      	movs	r0, r7
 8002170:	1ad2      	subs	r2, r2, r3
 8002172:	0029      	movs	r1, r5
 8002174:	4097      	lsls	r7, r2
 8002176:	002c      	movs	r4, r5
 8002178:	4091      	lsls	r1, r2
 800217a:	40d8      	lsrs	r0, r3
 800217c:	1e7a      	subs	r2, r7, #1
 800217e:	4197      	sbcs	r7, r2
 8002180:	40dc      	lsrs	r4, r3
 8002182:	2600      	movs	r6, #0
 8002184:	4301      	orrs	r1, r0
 8002186:	430f      	orrs	r7, r1
 8002188:	077b      	lsls	r3, r7, #29
 800218a:	d009      	beq.n	80021a0 <__aeabi_dsub+0x124>
 800218c:	230f      	movs	r3, #15
 800218e:	403b      	ands	r3, r7
 8002190:	2b04      	cmp	r3, #4
 8002192:	d005      	beq.n	80021a0 <__aeabi_dsub+0x124>
 8002194:	1d3b      	adds	r3, r7, #4
 8002196:	42bb      	cmp	r3, r7
 8002198:	41bf      	sbcs	r7, r7
 800219a:	427f      	negs	r7, r7
 800219c:	19e4      	adds	r4, r4, r7
 800219e:	001f      	movs	r7, r3
 80021a0:	0223      	lsls	r3, r4, #8
 80021a2:	d525      	bpl.n	80021f0 <__aeabi_dsub+0x174>
 80021a4:	4b86      	ldr	r3, [pc, #536]	; (80023c0 <__aeabi_dsub+0x344>)
 80021a6:	3601      	adds	r6, #1
 80021a8:	429e      	cmp	r6, r3
 80021aa:	d100      	bne.n	80021ae <__aeabi_dsub+0x132>
 80021ac:	e0af      	b.n	800230e <__aeabi_dsub+0x292>
 80021ae:	4b85      	ldr	r3, [pc, #532]	; (80023c4 <__aeabi_dsub+0x348>)
 80021b0:	2501      	movs	r5, #1
 80021b2:	401c      	ands	r4, r3
 80021b4:	4643      	mov	r3, r8
 80021b6:	0762      	lsls	r2, r4, #29
 80021b8:	08ff      	lsrs	r7, r7, #3
 80021ba:	0264      	lsls	r4, r4, #9
 80021bc:	0576      	lsls	r6, r6, #21
 80021be:	4317      	orrs	r7, r2
 80021c0:	0b24      	lsrs	r4, r4, #12
 80021c2:	0d76      	lsrs	r6, r6, #21
 80021c4:	401d      	ands	r5, r3
 80021c6:	2100      	movs	r1, #0
 80021c8:	0324      	lsls	r4, r4, #12
 80021ca:	0b23      	lsrs	r3, r4, #12
 80021cc:	0d0c      	lsrs	r4, r1, #20
 80021ce:	4a7e      	ldr	r2, [pc, #504]	; (80023c8 <__aeabi_dsub+0x34c>)
 80021d0:	0524      	lsls	r4, r4, #20
 80021d2:	431c      	orrs	r4, r3
 80021d4:	4014      	ands	r4, r2
 80021d6:	0533      	lsls	r3, r6, #20
 80021d8:	4323      	orrs	r3, r4
 80021da:	005b      	lsls	r3, r3, #1
 80021dc:	07ed      	lsls	r5, r5, #31
 80021de:	085b      	lsrs	r3, r3, #1
 80021e0:	432b      	orrs	r3, r5
 80021e2:	0038      	movs	r0, r7
 80021e4:	0019      	movs	r1, r3
 80021e6:	bc1c      	pop	{r2, r3, r4}
 80021e8:	4690      	mov	r8, r2
 80021ea:	4699      	mov	r9, r3
 80021ec:	46a2      	mov	sl, r4
 80021ee:	bdf0      	pop	{r4, r5, r6, r7, pc}
 80021f0:	2501      	movs	r5, #1
 80021f2:	4643      	mov	r3, r8
 80021f4:	0762      	lsls	r2, r4, #29
 80021f6:	08ff      	lsrs	r7, r7, #3
 80021f8:	4317      	orrs	r7, r2
 80021fa:	08e4      	lsrs	r4, r4, #3
 80021fc:	401d      	ands	r5, r3
 80021fe:	4b70      	ldr	r3, [pc, #448]	; (80023c0 <__aeabi_dsub+0x344>)
 8002200:	429e      	cmp	r6, r3
 8002202:	d036      	beq.n	8002272 <__aeabi_dsub+0x1f6>
 8002204:	0324      	lsls	r4, r4, #12
 8002206:	0576      	lsls	r6, r6, #21
 8002208:	0b24      	lsrs	r4, r4, #12
 800220a:	0d76      	lsrs	r6, r6, #21
 800220c:	e7db      	b.n	80021c6 <__aeabi_dsub+0x14a>
 800220e:	4663      	mov	r3, ip
 8002210:	1af3      	subs	r3, r6, r3
 8002212:	2b00      	cmp	r3, #0
 8002214:	dc00      	bgt.n	8002218 <__aeabi_dsub+0x19c>
 8002216:	e094      	b.n	8002342 <__aeabi_dsub+0x2c6>
 8002218:	4660      	mov	r0, ip
 800221a:	2800      	cmp	r0, #0
 800221c:	d035      	beq.n	800228a <__aeabi_dsub+0x20e>
 800221e:	4868      	ldr	r0, [pc, #416]	; (80023c0 <__aeabi_dsub+0x344>)
 8002220:	4286      	cmp	r6, r0
 8002222:	d0b1      	beq.n	8002188 <__aeabi_dsub+0x10c>
 8002224:	2780      	movs	r7, #128	; 0x80
 8002226:	043f      	lsls	r7, r7, #16
 8002228:	4339      	orrs	r1, r7
 800222a:	2b38      	cmp	r3, #56	; 0x38
 800222c:	dc00      	bgt.n	8002230 <__aeabi_dsub+0x1b4>
 800222e:	e0fd      	b.n	800242c <__aeabi_dsub+0x3b0>
 8002230:	430a      	orrs	r2, r1
 8002232:	0017      	movs	r7, r2
 8002234:	2100      	movs	r1, #0
 8002236:	1e7a      	subs	r2, r7, #1
 8002238:	4197      	sbcs	r7, r2
 800223a:	4457      	add	r7, sl
 800223c:	4557      	cmp	r7, sl
 800223e:	4180      	sbcs	r0, r0
 8002240:	1909      	adds	r1, r1, r4
 8002242:	4244      	negs	r4, r0
 8002244:	190c      	adds	r4, r1, r4
 8002246:	0223      	lsls	r3, r4, #8
 8002248:	d53a      	bpl.n	80022c0 <__aeabi_dsub+0x244>
 800224a:	4b5d      	ldr	r3, [pc, #372]	; (80023c0 <__aeabi_dsub+0x344>)
 800224c:	3601      	adds	r6, #1
 800224e:	429e      	cmp	r6, r3
 8002250:	d100      	bne.n	8002254 <__aeabi_dsub+0x1d8>
 8002252:	e14b      	b.n	80024ec <__aeabi_dsub+0x470>
 8002254:	2201      	movs	r2, #1
 8002256:	4b5b      	ldr	r3, [pc, #364]	; (80023c4 <__aeabi_dsub+0x348>)
 8002258:	401c      	ands	r4, r3
 800225a:	087b      	lsrs	r3, r7, #1
 800225c:	4017      	ands	r7, r2
 800225e:	431f      	orrs	r7, r3
 8002260:	07e2      	lsls	r2, r4, #31
 8002262:	4317      	orrs	r7, r2
 8002264:	0864      	lsrs	r4, r4, #1
 8002266:	e78f      	b.n	8002188 <__aeabi_dsub+0x10c>
 8002268:	0008      	movs	r0, r1
 800226a:	4310      	orrs	r0, r2
 800226c:	d000      	beq.n	8002270 <__aeabi_dsub+0x1f4>
 800226e:	e724      	b.n	80020ba <__aeabi_dsub+0x3e>
 8002270:	e721      	b.n	80020b6 <__aeabi_dsub+0x3a>
 8002272:	0023      	movs	r3, r4
 8002274:	433b      	orrs	r3, r7
 8002276:	d100      	bne.n	800227a <__aeabi_dsub+0x1fe>
 8002278:	e1b9      	b.n	80025ee <__aeabi_dsub+0x572>
 800227a:	2280      	movs	r2, #128	; 0x80
 800227c:	0312      	lsls	r2, r2, #12
 800227e:	4314      	orrs	r4, r2
 8002280:	0324      	lsls	r4, r4, #12
 8002282:	0b24      	lsrs	r4, r4, #12
 8002284:	e79f      	b.n	80021c6 <__aeabi_dsub+0x14a>
 8002286:	002e      	movs	r6, r5
 8002288:	e77e      	b.n	8002188 <__aeabi_dsub+0x10c>
 800228a:	0008      	movs	r0, r1
 800228c:	4310      	orrs	r0, r2
 800228e:	d100      	bne.n	8002292 <__aeabi_dsub+0x216>
 8002290:	e0ca      	b.n	8002428 <__aeabi_dsub+0x3ac>
 8002292:	1e58      	subs	r0, r3, #1
 8002294:	4684      	mov	ip, r0
 8002296:	2800      	cmp	r0, #0
 8002298:	d000      	beq.n	800229c <__aeabi_dsub+0x220>
 800229a:	e0e7      	b.n	800246c <__aeabi_dsub+0x3f0>
 800229c:	4452      	add	r2, sl
 800229e:	4552      	cmp	r2, sl
 80022a0:	4180      	sbcs	r0, r0
 80022a2:	1864      	adds	r4, r4, r1
 80022a4:	4240      	negs	r0, r0
 80022a6:	1824      	adds	r4, r4, r0
 80022a8:	0017      	movs	r7, r2
 80022aa:	2601      	movs	r6, #1
 80022ac:	0223      	lsls	r3, r4, #8
 80022ae:	d507      	bpl.n	80022c0 <__aeabi_dsub+0x244>
 80022b0:	2602      	movs	r6, #2
 80022b2:	e7cf      	b.n	8002254 <__aeabi_dsub+0x1d8>
 80022b4:	4664      	mov	r4, ip
 80022b6:	432c      	orrs	r4, r5
 80022b8:	d100      	bne.n	80022bc <__aeabi_dsub+0x240>
 80022ba:	e1b3      	b.n	8002624 <__aeabi_dsub+0x5a8>
 80022bc:	002c      	movs	r4, r5
 80022be:	4667      	mov	r7, ip
 80022c0:	077b      	lsls	r3, r7, #29
 80022c2:	d000      	beq.n	80022c6 <__aeabi_dsub+0x24a>
 80022c4:	e762      	b.n	800218c <__aeabi_dsub+0x110>
 80022c6:	0763      	lsls	r3, r4, #29
 80022c8:	08ff      	lsrs	r7, r7, #3
 80022ca:	431f      	orrs	r7, r3
 80022cc:	2501      	movs	r5, #1
 80022ce:	4643      	mov	r3, r8
 80022d0:	08e4      	lsrs	r4, r4, #3
 80022d2:	401d      	ands	r5, r3
 80022d4:	e793      	b.n	80021fe <__aeabi_dsub+0x182>
 80022d6:	2d00      	cmp	r5, #0
 80022d8:	d178      	bne.n	80023cc <__aeabi_dsub+0x350>
 80022da:	1c75      	adds	r5, r6, #1
 80022dc:	056d      	lsls	r5, r5, #21
 80022de:	0d6d      	lsrs	r5, r5, #21
 80022e0:	2d01      	cmp	r5, #1
 80022e2:	dc00      	bgt.n	80022e6 <__aeabi_dsub+0x26a>
 80022e4:	e0f2      	b.n	80024cc <__aeabi_dsub+0x450>
 80022e6:	4650      	mov	r0, sl
 80022e8:	1a80      	subs	r0, r0, r2
 80022ea:	4582      	cmp	sl, r0
 80022ec:	41bf      	sbcs	r7, r7
 80022ee:	1a65      	subs	r5, r4, r1
 80022f0:	427f      	negs	r7, r7
 80022f2:	1bed      	subs	r5, r5, r7
 80022f4:	4684      	mov	ip, r0
 80022f6:	0228      	lsls	r0, r5, #8
 80022f8:	d400      	bmi.n	80022fc <__aeabi_dsub+0x280>
 80022fa:	e08c      	b.n	8002416 <__aeabi_dsub+0x39a>
 80022fc:	4650      	mov	r0, sl
 80022fe:	1a17      	subs	r7, r2, r0
 8002300:	42ba      	cmp	r2, r7
 8002302:	4192      	sbcs	r2, r2
 8002304:	1b0c      	subs	r4, r1, r4
 8002306:	4255      	negs	r5, r2
 8002308:	1b65      	subs	r5, r4, r5
 800230a:	4698      	mov	r8, r3
 800230c:	e714      	b.n	8002138 <__aeabi_dsub+0xbc>
 800230e:	2501      	movs	r5, #1
 8002310:	4643      	mov	r3, r8
 8002312:	2400      	movs	r4, #0
 8002314:	401d      	ands	r5, r3
 8002316:	2700      	movs	r7, #0
 8002318:	e755      	b.n	80021c6 <__aeabi_dsub+0x14a>
 800231a:	4c2a      	ldr	r4, [pc, #168]	; (80023c4 <__aeabi_dsub+0x348>)
 800231c:	1af6      	subs	r6, r6, r3
 800231e:	402c      	ands	r4, r5
 8002320:	e732      	b.n	8002188 <__aeabi_dsub+0x10c>
 8002322:	003d      	movs	r5, r7
 8002324:	3828      	subs	r0, #40	; 0x28
 8002326:	4085      	lsls	r5, r0
 8002328:	2700      	movs	r7, #0
 800232a:	e717      	b.n	800215c <__aeabi_dsub+0xe0>
 800232c:	0038      	movs	r0, r7
 800232e:	f000 fa97 	bl	8002860 <__clzsi2>
 8002332:	3020      	adds	r0, #32
 8002334:	e706      	b.n	8002144 <__aeabi_dsub+0xc8>
 8002336:	430a      	orrs	r2, r1
 8002338:	0017      	movs	r7, r2
 800233a:	2100      	movs	r1, #0
 800233c:	1e7a      	subs	r2, r7, #1
 800233e:	4197      	sbcs	r7, r2
 8002340:	e6ee      	b.n	8002120 <__aeabi_dsub+0xa4>
 8002342:	2b00      	cmp	r3, #0
 8002344:	d000      	beq.n	8002348 <__aeabi_dsub+0x2cc>
 8002346:	e0e5      	b.n	8002514 <__aeabi_dsub+0x498>
 8002348:	1c73      	adds	r3, r6, #1
 800234a:	469c      	mov	ip, r3
 800234c:	055b      	lsls	r3, r3, #21
 800234e:	0d5b      	lsrs	r3, r3, #21
 8002350:	2b01      	cmp	r3, #1
 8002352:	dc00      	bgt.n	8002356 <__aeabi_dsub+0x2da>
 8002354:	e09f      	b.n	8002496 <__aeabi_dsub+0x41a>
 8002356:	4b1a      	ldr	r3, [pc, #104]	; (80023c0 <__aeabi_dsub+0x344>)
 8002358:	459c      	cmp	ip, r3
 800235a:	d100      	bne.n	800235e <__aeabi_dsub+0x2e2>
 800235c:	e0c5      	b.n	80024ea <__aeabi_dsub+0x46e>
 800235e:	4452      	add	r2, sl
 8002360:	4552      	cmp	r2, sl
 8002362:	4180      	sbcs	r0, r0
 8002364:	1864      	adds	r4, r4, r1
 8002366:	4240      	negs	r0, r0
 8002368:	1824      	adds	r4, r4, r0
 800236a:	07e7      	lsls	r7, r4, #31
 800236c:	0852      	lsrs	r2, r2, #1
 800236e:	4317      	orrs	r7, r2
 8002370:	0864      	lsrs	r4, r4, #1
 8002372:	4666      	mov	r6, ip
 8002374:	e708      	b.n	8002188 <__aeabi_dsub+0x10c>
 8002376:	4812      	ldr	r0, [pc, #72]	; (80023c0 <__aeabi_dsub+0x344>)
 8002378:	4285      	cmp	r5, r0
 800237a:	d100      	bne.n	800237e <__aeabi_dsub+0x302>
 800237c:	e085      	b.n	800248a <__aeabi_dsub+0x40e>
 800237e:	001d      	movs	r5, r3
 8002380:	e6bc      	b.n	80020fc <__aeabi_dsub+0x80>
 8002382:	0029      	movs	r1, r5
 8002384:	3e1f      	subs	r6, #31
 8002386:	40f1      	lsrs	r1, r6
 8002388:	2b20      	cmp	r3, #32
 800238a:	d100      	bne.n	800238e <__aeabi_dsub+0x312>
 800238c:	e07f      	b.n	800248e <__aeabi_dsub+0x412>
 800238e:	2240      	movs	r2, #64	; 0x40
 8002390:	1ad3      	subs	r3, r2, r3
 8002392:	409d      	lsls	r5, r3
 8002394:	432f      	orrs	r7, r5
 8002396:	1e7d      	subs	r5, r7, #1
 8002398:	41af      	sbcs	r7, r5
 800239a:	2400      	movs	r4, #0
 800239c:	430f      	orrs	r7, r1
 800239e:	2600      	movs	r6, #0
 80023a0:	e78e      	b.n	80022c0 <__aeabi_dsub+0x244>
 80023a2:	002b      	movs	r3, r5
 80023a4:	000f      	movs	r7, r1
 80023a6:	3b20      	subs	r3, #32
 80023a8:	40df      	lsrs	r7, r3
 80023aa:	2d20      	cmp	r5, #32
 80023ac:	d071      	beq.n	8002492 <__aeabi_dsub+0x416>
 80023ae:	2340      	movs	r3, #64	; 0x40
 80023b0:	1b5d      	subs	r5, r3, r5
 80023b2:	40a9      	lsls	r1, r5
 80023b4:	430a      	orrs	r2, r1
 80023b6:	1e51      	subs	r1, r2, #1
 80023b8:	418a      	sbcs	r2, r1
 80023ba:	2100      	movs	r1, #0
 80023bc:	4317      	orrs	r7, r2
 80023be:	e6af      	b.n	8002120 <__aeabi_dsub+0xa4>
 80023c0:	000007ff 	.word	0x000007ff
 80023c4:	ff7fffff 	.word	0xff7fffff
 80023c8:	800fffff 	.word	0x800fffff
 80023cc:	2e00      	cmp	r6, #0
 80023ce:	d03e      	beq.n	800244e <__aeabi_dsub+0x3d2>
 80023d0:	4eb3      	ldr	r6, [pc, #716]	; (80026a0 <__aeabi_dsub+0x624>)
 80023d2:	45b4      	cmp	ip, r6
 80023d4:	d045      	beq.n	8002462 <__aeabi_dsub+0x3e6>
 80023d6:	2680      	movs	r6, #128	; 0x80
 80023d8:	0436      	lsls	r6, r6, #16
 80023da:	426d      	negs	r5, r5
 80023dc:	4334      	orrs	r4, r6
 80023de:	2d38      	cmp	r5, #56	; 0x38
 80023e0:	dd00      	ble.n	80023e4 <__aeabi_dsub+0x368>
 80023e2:	e0a8      	b.n	8002536 <__aeabi_dsub+0x4ba>
 80023e4:	2d1f      	cmp	r5, #31
 80023e6:	dd00      	ble.n	80023ea <__aeabi_dsub+0x36e>
 80023e8:	e11f      	b.n	800262a <__aeabi_dsub+0x5ae>
 80023ea:	2620      	movs	r6, #32
 80023ec:	0027      	movs	r7, r4
 80023ee:	4650      	mov	r0, sl
 80023f0:	1b76      	subs	r6, r6, r5
 80023f2:	40b7      	lsls	r7, r6
 80023f4:	40e8      	lsrs	r0, r5
 80023f6:	4307      	orrs	r7, r0
 80023f8:	4650      	mov	r0, sl
 80023fa:	40b0      	lsls	r0, r6
 80023fc:	1e46      	subs	r6, r0, #1
 80023fe:	41b0      	sbcs	r0, r6
 8002400:	40ec      	lsrs	r4, r5
 8002402:	4338      	orrs	r0, r7
 8002404:	1a17      	subs	r7, r2, r0
 8002406:	42ba      	cmp	r2, r7
 8002408:	4192      	sbcs	r2, r2
 800240a:	1b0c      	subs	r4, r1, r4
 800240c:	4252      	negs	r2, r2
 800240e:	1aa4      	subs	r4, r4, r2
 8002410:	4666      	mov	r6, ip
 8002412:	4698      	mov	r8, r3
 8002414:	e68b      	b.n	800212e <__aeabi_dsub+0xb2>
 8002416:	4664      	mov	r4, ip
 8002418:	4667      	mov	r7, ip
 800241a:	432c      	orrs	r4, r5
 800241c:	d000      	beq.n	8002420 <__aeabi_dsub+0x3a4>
 800241e:	e68b      	b.n	8002138 <__aeabi_dsub+0xbc>
 8002420:	2500      	movs	r5, #0
 8002422:	2600      	movs	r6, #0
 8002424:	2700      	movs	r7, #0
 8002426:	e6ea      	b.n	80021fe <__aeabi_dsub+0x182>
 8002428:	001e      	movs	r6, r3
 800242a:	e6ad      	b.n	8002188 <__aeabi_dsub+0x10c>
 800242c:	2b1f      	cmp	r3, #31
 800242e:	dc60      	bgt.n	80024f2 <__aeabi_dsub+0x476>
 8002430:	2720      	movs	r7, #32
 8002432:	1af8      	subs	r0, r7, r3
 8002434:	000f      	movs	r7, r1
 8002436:	4684      	mov	ip, r0
 8002438:	4087      	lsls	r7, r0
 800243a:	0010      	movs	r0, r2
 800243c:	40d8      	lsrs	r0, r3
 800243e:	4307      	orrs	r7, r0
 8002440:	4660      	mov	r0, ip
 8002442:	4082      	lsls	r2, r0
 8002444:	1e50      	subs	r0, r2, #1
 8002446:	4182      	sbcs	r2, r0
 8002448:	40d9      	lsrs	r1, r3
 800244a:	4317      	orrs	r7, r2
 800244c:	e6f5      	b.n	800223a <__aeabi_dsub+0x1be>
 800244e:	0026      	movs	r6, r4
 8002450:	4650      	mov	r0, sl
 8002452:	4306      	orrs	r6, r0
 8002454:	d005      	beq.n	8002462 <__aeabi_dsub+0x3e6>
 8002456:	43ed      	mvns	r5, r5
 8002458:	2d00      	cmp	r5, #0
 800245a:	d0d3      	beq.n	8002404 <__aeabi_dsub+0x388>
 800245c:	4e90      	ldr	r6, [pc, #576]	; (80026a0 <__aeabi_dsub+0x624>)
 800245e:	45b4      	cmp	ip, r6
 8002460:	d1bd      	bne.n	80023de <__aeabi_dsub+0x362>
 8002462:	000c      	movs	r4, r1
 8002464:	0017      	movs	r7, r2
 8002466:	4666      	mov	r6, ip
 8002468:	4698      	mov	r8, r3
 800246a:	e68d      	b.n	8002188 <__aeabi_dsub+0x10c>
 800246c:	488c      	ldr	r0, [pc, #560]	; (80026a0 <__aeabi_dsub+0x624>)
 800246e:	4283      	cmp	r3, r0
 8002470:	d00b      	beq.n	800248a <__aeabi_dsub+0x40e>
 8002472:	4663      	mov	r3, ip
 8002474:	e6d9      	b.n	800222a <__aeabi_dsub+0x1ae>
 8002476:	2d00      	cmp	r5, #0
 8002478:	d000      	beq.n	800247c <__aeabi_dsub+0x400>
 800247a:	e096      	b.n	80025aa <__aeabi_dsub+0x52e>
 800247c:	0008      	movs	r0, r1
 800247e:	4310      	orrs	r0, r2
 8002480:	d100      	bne.n	8002484 <__aeabi_dsub+0x408>
 8002482:	e0e2      	b.n	800264a <__aeabi_dsub+0x5ce>
 8002484:	000c      	movs	r4, r1
 8002486:	0017      	movs	r7, r2
 8002488:	4698      	mov	r8, r3
 800248a:	4e85      	ldr	r6, [pc, #532]	; (80026a0 <__aeabi_dsub+0x624>)
 800248c:	e67c      	b.n	8002188 <__aeabi_dsub+0x10c>
 800248e:	2500      	movs	r5, #0
 8002490:	e780      	b.n	8002394 <__aeabi_dsub+0x318>
 8002492:	2100      	movs	r1, #0
 8002494:	e78e      	b.n	80023b4 <__aeabi_dsub+0x338>
 8002496:	0023      	movs	r3, r4
 8002498:	4650      	mov	r0, sl
 800249a:	4303      	orrs	r3, r0
 800249c:	2e00      	cmp	r6, #0
 800249e:	d000      	beq.n	80024a2 <__aeabi_dsub+0x426>
 80024a0:	e0a8      	b.n	80025f4 <__aeabi_dsub+0x578>
 80024a2:	2b00      	cmp	r3, #0
 80024a4:	d100      	bne.n	80024a8 <__aeabi_dsub+0x42c>
 80024a6:	e0de      	b.n	8002666 <__aeabi_dsub+0x5ea>
 80024a8:	000b      	movs	r3, r1
 80024aa:	4313      	orrs	r3, r2
 80024ac:	d100      	bne.n	80024b0 <__aeabi_dsub+0x434>
 80024ae:	e66b      	b.n	8002188 <__aeabi_dsub+0x10c>
 80024b0:	4452      	add	r2, sl
 80024b2:	4552      	cmp	r2, sl
 80024b4:	4180      	sbcs	r0, r0
 80024b6:	1864      	adds	r4, r4, r1
 80024b8:	4240      	negs	r0, r0
 80024ba:	1824      	adds	r4, r4, r0
 80024bc:	0017      	movs	r7, r2
 80024be:	0223      	lsls	r3, r4, #8
 80024c0:	d400      	bmi.n	80024c4 <__aeabi_dsub+0x448>
 80024c2:	e6fd      	b.n	80022c0 <__aeabi_dsub+0x244>
 80024c4:	4b77      	ldr	r3, [pc, #476]	; (80026a4 <__aeabi_dsub+0x628>)
 80024c6:	4666      	mov	r6, ip
 80024c8:	401c      	ands	r4, r3
 80024ca:	e65d      	b.n	8002188 <__aeabi_dsub+0x10c>
 80024cc:	0025      	movs	r5, r4
 80024ce:	4650      	mov	r0, sl
 80024d0:	4305      	orrs	r5, r0
 80024d2:	2e00      	cmp	r6, #0
 80024d4:	d1cf      	bne.n	8002476 <__aeabi_dsub+0x3fa>
 80024d6:	2d00      	cmp	r5, #0
 80024d8:	d14f      	bne.n	800257a <__aeabi_dsub+0x4fe>
 80024da:	000c      	movs	r4, r1
 80024dc:	4314      	orrs	r4, r2
 80024de:	d100      	bne.n	80024e2 <__aeabi_dsub+0x466>
 80024e0:	e0a0      	b.n	8002624 <__aeabi_dsub+0x5a8>
 80024e2:	000c      	movs	r4, r1
 80024e4:	0017      	movs	r7, r2
 80024e6:	4698      	mov	r8, r3
 80024e8:	e64e      	b.n	8002188 <__aeabi_dsub+0x10c>
 80024ea:	4666      	mov	r6, ip
 80024ec:	2400      	movs	r4, #0
 80024ee:	2700      	movs	r7, #0
 80024f0:	e685      	b.n	80021fe <__aeabi_dsub+0x182>
 80024f2:	001f      	movs	r7, r3
 80024f4:	0008      	movs	r0, r1
 80024f6:	3f20      	subs	r7, #32
 80024f8:	40f8      	lsrs	r0, r7
 80024fa:	0007      	movs	r7, r0
 80024fc:	2b20      	cmp	r3, #32
 80024fe:	d100      	bne.n	8002502 <__aeabi_dsub+0x486>
 8002500:	e08e      	b.n	8002620 <__aeabi_dsub+0x5a4>
 8002502:	2040      	movs	r0, #64	; 0x40
 8002504:	1ac3      	subs	r3, r0, r3
 8002506:	4099      	lsls	r1, r3
 8002508:	430a      	orrs	r2, r1
 800250a:	1e51      	subs	r1, r2, #1
 800250c:	418a      	sbcs	r2, r1
 800250e:	2100      	movs	r1, #0
 8002510:	4317      	orrs	r7, r2
 8002512:	e692      	b.n	800223a <__aeabi_dsub+0x1be>
 8002514:	2e00      	cmp	r6, #0
 8002516:	d114      	bne.n	8002542 <__aeabi_dsub+0x4c6>
 8002518:	0026      	movs	r6, r4
 800251a:	4650      	mov	r0, sl
 800251c:	4306      	orrs	r6, r0
 800251e:	d062      	beq.n	80025e6 <__aeabi_dsub+0x56a>
 8002520:	43db      	mvns	r3, r3
 8002522:	2b00      	cmp	r3, #0
 8002524:	d15c      	bne.n	80025e0 <__aeabi_dsub+0x564>
 8002526:	1887      	adds	r7, r0, r2
 8002528:	4297      	cmp	r7, r2
 800252a:	4192      	sbcs	r2, r2
 800252c:	1864      	adds	r4, r4, r1
 800252e:	4252      	negs	r2, r2
 8002530:	18a4      	adds	r4, r4, r2
 8002532:	4666      	mov	r6, ip
 8002534:	e687      	b.n	8002246 <__aeabi_dsub+0x1ca>
 8002536:	4650      	mov	r0, sl
 8002538:	4320      	orrs	r0, r4
 800253a:	1e44      	subs	r4, r0, #1
 800253c:	41a0      	sbcs	r0, r4
 800253e:	2400      	movs	r4, #0
 8002540:	e760      	b.n	8002404 <__aeabi_dsub+0x388>
 8002542:	4e57      	ldr	r6, [pc, #348]	; (80026a0 <__aeabi_dsub+0x624>)
 8002544:	45b4      	cmp	ip, r6
 8002546:	d04e      	beq.n	80025e6 <__aeabi_dsub+0x56a>
 8002548:	2680      	movs	r6, #128	; 0x80
 800254a:	0436      	lsls	r6, r6, #16
 800254c:	425b      	negs	r3, r3
 800254e:	4334      	orrs	r4, r6
 8002550:	2b38      	cmp	r3, #56	; 0x38
 8002552:	dd00      	ble.n	8002556 <__aeabi_dsub+0x4da>
 8002554:	e07f      	b.n	8002656 <__aeabi_dsub+0x5da>
 8002556:	2b1f      	cmp	r3, #31
 8002558:	dd00      	ble.n	800255c <__aeabi_dsub+0x4e0>
 800255a:	e08b      	b.n	8002674 <__aeabi_dsub+0x5f8>
 800255c:	2620      	movs	r6, #32
 800255e:	0027      	movs	r7, r4
 8002560:	4650      	mov	r0, sl
 8002562:	1af6      	subs	r6, r6, r3
 8002564:	40b7      	lsls	r7, r6
 8002566:	40d8      	lsrs	r0, r3
 8002568:	4307      	orrs	r7, r0
 800256a:	4650      	mov	r0, sl
 800256c:	40b0      	lsls	r0, r6
 800256e:	1e46      	subs	r6, r0, #1
 8002570:	41b0      	sbcs	r0, r6
 8002572:	4307      	orrs	r7, r0
 8002574:	40dc      	lsrs	r4, r3
 8002576:	18bf      	adds	r7, r7, r2
 8002578:	e7d6      	b.n	8002528 <__aeabi_dsub+0x4ac>
 800257a:	000d      	movs	r5, r1
 800257c:	4315      	orrs	r5, r2
 800257e:	d100      	bne.n	8002582 <__aeabi_dsub+0x506>
 8002580:	e602      	b.n	8002188 <__aeabi_dsub+0x10c>
 8002582:	4650      	mov	r0, sl
 8002584:	1a80      	subs	r0, r0, r2
 8002586:	4582      	cmp	sl, r0
 8002588:	41bf      	sbcs	r7, r7
 800258a:	1a65      	subs	r5, r4, r1
 800258c:	427f      	negs	r7, r7
 800258e:	1bed      	subs	r5, r5, r7
 8002590:	4684      	mov	ip, r0
 8002592:	0228      	lsls	r0, r5, #8
 8002594:	d400      	bmi.n	8002598 <__aeabi_dsub+0x51c>
 8002596:	e68d      	b.n	80022b4 <__aeabi_dsub+0x238>
 8002598:	4650      	mov	r0, sl
 800259a:	1a17      	subs	r7, r2, r0
 800259c:	42ba      	cmp	r2, r7
 800259e:	4192      	sbcs	r2, r2
 80025a0:	1b0c      	subs	r4, r1, r4
 80025a2:	4252      	negs	r2, r2
 80025a4:	1aa4      	subs	r4, r4, r2
 80025a6:	4698      	mov	r8, r3
 80025a8:	e5ee      	b.n	8002188 <__aeabi_dsub+0x10c>
 80025aa:	000d      	movs	r5, r1
 80025ac:	4315      	orrs	r5, r2
 80025ae:	d100      	bne.n	80025b2 <__aeabi_dsub+0x536>
 80025b0:	e76b      	b.n	800248a <__aeabi_dsub+0x40e>
 80025b2:	4650      	mov	r0, sl
 80025b4:	0767      	lsls	r7, r4, #29
 80025b6:	08c0      	lsrs	r0, r0, #3
 80025b8:	4307      	orrs	r7, r0
 80025ba:	2080      	movs	r0, #128	; 0x80
 80025bc:	08e4      	lsrs	r4, r4, #3
 80025be:	0300      	lsls	r0, r0, #12
 80025c0:	4204      	tst	r4, r0
 80025c2:	d007      	beq.n	80025d4 <__aeabi_dsub+0x558>
 80025c4:	08cd      	lsrs	r5, r1, #3
 80025c6:	4205      	tst	r5, r0
 80025c8:	d104      	bne.n	80025d4 <__aeabi_dsub+0x558>
 80025ca:	002c      	movs	r4, r5
 80025cc:	4698      	mov	r8, r3
 80025ce:	08d7      	lsrs	r7, r2, #3
 80025d0:	0749      	lsls	r1, r1, #29
 80025d2:	430f      	orrs	r7, r1
 80025d4:	0f7b      	lsrs	r3, r7, #29
 80025d6:	00e4      	lsls	r4, r4, #3
 80025d8:	431c      	orrs	r4, r3
 80025da:	00ff      	lsls	r7, r7, #3
 80025dc:	4e30      	ldr	r6, [pc, #192]	; (80026a0 <__aeabi_dsub+0x624>)
 80025de:	e5d3      	b.n	8002188 <__aeabi_dsub+0x10c>
 80025e0:	4e2f      	ldr	r6, [pc, #188]	; (80026a0 <__aeabi_dsub+0x624>)
 80025e2:	45b4      	cmp	ip, r6
 80025e4:	d1b4      	bne.n	8002550 <__aeabi_dsub+0x4d4>
 80025e6:	000c      	movs	r4, r1
 80025e8:	0017      	movs	r7, r2
 80025ea:	4666      	mov	r6, ip
 80025ec:	e5cc      	b.n	8002188 <__aeabi_dsub+0x10c>
 80025ee:	2700      	movs	r7, #0
 80025f0:	2400      	movs	r4, #0
 80025f2:	e5e8      	b.n	80021c6 <__aeabi_dsub+0x14a>
 80025f4:	2b00      	cmp	r3, #0
 80025f6:	d039      	beq.n	800266c <__aeabi_dsub+0x5f0>
 80025f8:	000b      	movs	r3, r1
 80025fa:	4313      	orrs	r3, r2
 80025fc:	d100      	bne.n	8002600 <__aeabi_dsub+0x584>
 80025fe:	e744      	b.n	800248a <__aeabi_dsub+0x40e>
 8002600:	08c0      	lsrs	r0, r0, #3
 8002602:	0767      	lsls	r7, r4, #29
 8002604:	4307      	orrs	r7, r0
 8002606:	2080      	movs	r0, #128	; 0x80
 8002608:	08e4      	lsrs	r4, r4, #3
 800260a:	0300      	lsls	r0, r0, #12
 800260c:	4204      	tst	r4, r0
 800260e:	d0e1      	beq.n	80025d4 <__aeabi_dsub+0x558>
 8002610:	08cb      	lsrs	r3, r1, #3
 8002612:	4203      	tst	r3, r0
 8002614:	d1de      	bne.n	80025d4 <__aeabi_dsub+0x558>
 8002616:	08d7      	lsrs	r7, r2, #3
 8002618:	0749      	lsls	r1, r1, #29
 800261a:	430f      	orrs	r7, r1
 800261c:	001c      	movs	r4, r3
 800261e:	e7d9      	b.n	80025d4 <__aeabi_dsub+0x558>
 8002620:	2100      	movs	r1, #0
 8002622:	e771      	b.n	8002508 <__aeabi_dsub+0x48c>
 8002624:	2500      	movs	r5, #0
 8002626:	2700      	movs	r7, #0
 8002628:	e5e9      	b.n	80021fe <__aeabi_dsub+0x182>
 800262a:	002e      	movs	r6, r5
 800262c:	0027      	movs	r7, r4
 800262e:	3e20      	subs	r6, #32
 8002630:	40f7      	lsrs	r7, r6
 8002632:	2d20      	cmp	r5, #32
 8002634:	d02f      	beq.n	8002696 <__aeabi_dsub+0x61a>
 8002636:	2640      	movs	r6, #64	; 0x40
 8002638:	1b75      	subs	r5, r6, r5
 800263a:	40ac      	lsls	r4, r5
 800263c:	4650      	mov	r0, sl
 800263e:	4320      	orrs	r0, r4
 8002640:	1e44      	subs	r4, r0, #1
 8002642:	41a0      	sbcs	r0, r4
 8002644:	2400      	movs	r4, #0
 8002646:	4338      	orrs	r0, r7
 8002648:	e6dc      	b.n	8002404 <__aeabi_dsub+0x388>
 800264a:	2480      	movs	r4, #128	; 0x80
 800264c:	2500      	movs	r5, #0
 800264e:	0324      	lsls	r4, r4, #12
 8002650:	4e13      	ldr	r6, [pc, #76]	; (80026a0 <__aeabi_dsub+0x624>)
 8002652:	2700      	movs	r7, #0
 8002654:	e5d3      	b.n	80021fe <__aeabi_dsub+0x182>
 8002656:	4650      	mov	r0, sl
 8002658:	4320      	orrs	r0, r4
 800265a:	0007      	movs	r7, r0
 800265c:	1e78      	subs	r0, r7, #1
 800265e:	4187      	sbcs	r7, r0
 8002660:	2400      	movs	r4, #0
 8002662:	18bf      	adds	r7, r7, r2
 8002664:	e760      	b.n	8002528 <__aeabi_dsub+0x4ac>
 8002666:	000c      	movs	r4, r1
 8002668:	0017      	movs	r7, r2
 800266a:	e58d      	b.n	8002188 <__aeabi_dsub+0x10c>
 800266c:	000c      	movs	r4, r1
 800266e:	0017      	movs	r7, r2
 8002670:	4e0b      	ldr	r6, [pc, #44]	; (80026a0 <__aeabi_dsub+0x624>)
 8002672:	e589      	b.n	8002188 <__aeabi_dsub+0x10c>
 8002674:	001e      	movs	r6, r3
 8002676:	0027      	movs	r7, r4
 8002678:	3e20      	subs	r6, #32
 800267a:	40f7      	lsrs	r7, r6
 800267c:	2b20      	cmp	r3, #32
 800267e:	d00c      	beq.n	800269a <__aeabi_dsub+0x61e>
 8002680:	2640      	movs	r6, #64	; 0x40
 8002682:	1af3      	subs	r3, r6, r3
 8002684:	409c      	lsls	r4, r3
 8002686:	4650      	mov	r0, sl
 8002688:	4320      	orrs	r0, r4
 800268a:	1e44      	subs	r4, r0, #1
 800268c:	41a0      	sbcs	r0, r4
 800268e:	4307      	orrs	r7, r0
 8002690:	2400      	movs	r4, #0
 8002692:	18bf      	adds	r7, r7, r2
 8002694:	e748      	b.n	8002528 <__aeabi_dsub+0x4ac>
 8002696:	2400      	movs	r4, #0
 8002698:	e7d0      	b.n	800263c <__aeabi_dsub+0x5c0>
 800269a:	2400      	movs	r4, #0
 800269c:	e7f3      	b.n	8002686 <__aeabi_dsub+0x60a>
 800269e:	46c0      	nop			; (mov r8, r8)
 80026a0:	000007ff 	.word	0x000007ff
 80026a4:	ff7fffff 	.word	0xff7fffff

080026a8 <__aeabi_f2d>:
 80026a8:	0041      	lsls	r1, r0, #1
 80026aa:	0e09      	lsrs	r1, r1, #24
 80026ac:	1c4b      	adds	r3, r1, #1
 80026ae:	b570      	push	{r4, r5, r6, lr}
 80026b0:	b2db      	uxtb	r3, r3
 80026b2:	0246      	lsls	r6, r0, #9
 80026b4:	0a75      	lsrs	r5, r6, #9
 80026b6:	0fc4      	lsrs	r4, r0, #31
 80026b8:	2b01      	cmp	r3, #1
 80026ba:	dd14      	ble.n	80026e6 <__aeabi_f2d+0x3e>
 80026bc:	23e0      	movs	r3, #224	; 0xe0
 80026be:	009b      	lsls	r3, r3, #2
 80026c0:	076d      	lsls	r5, r5, #29
 80026c2:	0b36      	lsrs	r6, r6, #12
 80026c4:	18cb      	adds	r3, r1, r3
 80026c6:	2100      	movs	r1, #0
 80026c8:	0d0a      	lsrs	r2, r1, #20
 80026ca:	0028      	movs	r0, r5
 80026cc:	0512      	lsls	r2, r2, #20
 80026ce:	4d1c      	ldr	r5, [pc, #112]	; (8002740 <__aeabi_f2d+0x98>)
 80026d0:	4332      	orrs	r2, r6
 80026d2:	055b      	lsls	r3, r3, #21
 80026d4:	402a      	ands	r2, r5
 80026d6:	085b      	lsrs	r3, r3, #1
 80026d8:	4313      	orrs	r3, r2
 80026da:	005b      	lsls	r3, r3, #1
 80026dc:	07e4      	lsls	r4, r4, #31
 80026de:	085b      	lsrs	r3, r3, #1
 80026e0:	4323      	orrs	r3, r4
 80026e2:	0019      	movs	r1, r3
 80026e4:	bd70      	pop	{r4, r5, r6, pc}
 80026e6:	2900      	cmp	r1, #0
 80026e8:	d114      	bne.n	8002714 <__aeabi_f2d+0x6c>
 80026ea:	2d00      	cmp	r5, #0
 80026ec:	d01e      	beq.n	800272c <__aeabi_f2d+0x84>
 80026ee:	0028      	movs	r0, r5
 80026f0:	f000 f8b6 	bl	8002860 <__clzsi2>
 80026f4:	280a      	cmp	r0, #10
 80026f6:	dc1c      	bgt.n	8002732 <__aeabi_f2d+0x8a>
 80026f8:	230b      	movs	r3, #11
 80026fa:	002a      	movs	r2, r5
 80026fc:	1a1b      	subs	r3, r3, r0
 80026fe:	40da      	lsrs	r2, r3
 8002700:	0003      	movs	r3, r0
 8002702:	3315      	adds	r3, #21
 8002704:	409d      	lsls	r5, r3
 8002706:	4b0f      	ldr	r3, [pc, #60]	; (8002744 <__aeabi_f2d+0x9c>)
 8002708:	0312      	lsls	r2, r2, #12
 800270a:	1a1b      	subs	r3, r3, r0
 800270c:	055b      	lsls	r3, r3, #21
 800270e:	0b16      	lsrs	r6, r2, #12
 8002710:	0d5b      	lsrs	r3, r3, #21
 8002712:	e7d8      	b.n	80026c6 <__aeabi_f2d+0x1e>
 8002714:	2d00      	cmp	r5, #0
 8002716:	d006      	beq.n	8002726 <__aeabi_f2d+0x7e>
 8002718:	0b32      	lsrs	r2, r6, #12
 800271a:	2680      	movs	r6, #128	; 0x80
 800271c:	0336      	lsls	r6, r6, #12
 800271e:	076d      	lsls	r5, r5, #29
 8002720:	4316      	orrs	r6, r2
 8002722:	4b09      	ldr	r3, [pc, #36]	; (8002748 <__aeabi_f2d+0xa0>)
 8002724:	e7cf      	b.n	80026c6 <__aeabi_f2d+0x1e>
 8002726:	4b08      	ldr	r3, [pc, #32]	; (8002748 <__aeabi_f2d+0xa0>)
 8002728:	2600      	movs	r6, #0
 800272a:	e7cc      	b.n	80026c6 <__aeabi_f2d+0x1e>
 800272c:	2300      	movs	r3, #0
 800272e:	2600      	movs	r6, #0
 8002730:	e7c9      	b.n	80026c6 <__aeabi_f2d+0x1e>
 8002732:	0003      	movs	r3, r0
 8002734:	002a      	movs	r2, r5
 8002736:	3b0b      	subs	r3, #11
 8002738:	409a      	lsls	r2, r3
 800273a:	2500      	movs	r5, #0
 800273c:	e7e3      	b.n	8002706 <__aeabi_f2d+0x5e>
 800273e:	46c0      	nop			; (mov r8, r8)
 8002740:	800fffff 	.word	0x800fffff
 8002744:	00000389 	.word	0x00000389
 8002748:	000007ff 	.word	0x000007ff

0800274c <__aeabi_d2f>:
 800274c:	b5f0      	push	{r4, r5, r6, r7, lr}
 800274e:	004c      	lsls	r4, r1, #1
 8002750:	0d64      	lsrs	r4, r4, #21
 8002752:	030b      	lsls	r3, r1, #12
 8002754:	1c62      	adds	r2, r4, #1
 8002756:	0f45      	lsrs	r5, r0, #29
 8002758:	0a5b      	lsrs	r3, r3, #9
 800275a:	0552      	lsls	r2, r2, #21
 800275c:	432b      	orrs	r3, r5
 800275e:	0fc9      	lsrs	r1, r1, #31
 8002760:	00c5      	lsls	r5, r0, #3
 8002762:	0d52      	lsrs	r2, r2, #21
 8002764:	2a01      	cmp	r2, #1
 8002766:	dd28      	ble.n	80027ba <__aeabi_d2f+0x6e>
 8002768:	4a3a      	ldr	r2, [pc, #232]	; (8002854 <__aeabi_d2f+0x108>)
 800276a:	18a6      	adds	r6, r4, r2
 800276c:	2efe      	cmp	r6, #254	; 0xfe
 800276e:	dc1b      	bgt.n	80027a8 <__aeabi_d2f+0x5c>
 8002770:	2e00      	cmp	r6, #0
 8002772:	dd3e      	ble.n	80027f2 <__aeabi_d2f+0xa6>
 8002774:	0180      	lsls	r0, r0, #6
 8002776:	0002      	movs	r2, r0
 8002778:	1e50      	subs	r0, r2, #1
 800277a:	4182      	sbcs	r2, r0
 800277c:	0f6d      	lsrs	r5, r5, #29
 800277e:	432a      	orrs	r2, r5
 8002780:	00db      	lsls	r3, r3, #3
 8002782:	4313      	orrs	r3, r2
 8002784:	075a      	lsls	r2, r3, #29
 8002786:	d004      	beq.n	8002792 <__aeabi_d2f+0x46>
 8002788:	220f      	movs	r2, #15
 800278a:	401a      	ands	r2, r3
 800278c:	2a04      	cmp	r2, #4
 800278e:	d000      	beq.n	8002792 <__aeabi_d2f+0x46>
 8002790:	3304      	adds	r3, #4
 8002792:	2280      	movs	r2, #128	; 0x80
 8002794:	04d2      	lsls	r2, r2, #19
 8002796:	401a      	ands	r2, r3
 8002798:	d05a      	beq.n	8002850 <__aeabi_d2f+0x104>
 800279a:	3601      	adds	r6, #1
 800279c:	2eff      	cmp	r6, #255	; 0xff
 800279e:	d003      	beq.n	80027a8 <__aeabi_d2f+0x5c>
 80027a0:	019b      	lsls	r3, r3, #6
 80027a2:	0a5b      	lsrs	r3, r3, #9
 80027a4:	b2f4      	uxtb	r4, r6
 80027a6:	e001      	b.n	80027ac <__aeabi_d2f+0x60>
 80027a8:	24ff      	movs	r4, #255	; 0xff
 80027aa:	2300      	movs	r3, #0
 80027ac:	0258      	lsls	r0, r3, #9
 80027ae:	05e4      	lsls	r4, r4, #23
 80027b0:	0a40      	lsrs	r0, r0, #9
 80027b2:	07c9      	lsls	r1, r1, #31
 80027b4:	4320      	orrs	r0, r4
 80027b6:	4308      	orrs	r0, r1
 80027b8:	bdf0      	pop	{r4, r5, r6, r7, pc}
 80027ba:	2c00      	cmp	r4, #0
 80027bc:	d007      	beq.n	80027ce <__aeabi_d2f+0x82>
 80027be:	431d      	orrs	r5, r3
 80027c0:	d0f2      	beq.n	80027a8 <__aeabi_d2f+0x5c>
 80027c2:	2080      	movs	r0, #128	; 0x80
 80027c4:	00db      	lsls	r3, r3, #3
 80027c6:	0480      	lsls	r0, r0, #18
 80027c8:	4303      	orrs	r3, r0
 80027ca:	26ff      	movs	r6, #255	; 0xff
 80027cc:	e7da      	b.n	8002784 <__aeabi_d2f+0x38>
 80027ce:	432b      	orrs	r3, r5
 80027d0:	d003      	beq.n	80027da <__aeabi_d2f+0x8e>
 80027d2:	2305      	movs	r3, #5
 80027d4:	08db      	lsrs	r3, r3, #3
 80027d6:	2cff      	cmp	r4, #255	; 0xff
 80027d8:	d003      	beq.n	80027e2 <__aeabi_d2f+0x96>
 80027da:	025b      	lsls	r3, r3, #9
 80027dc:	0a5b      	lsrs	r3, r3, #9
 80027de:	b2e4      	uxtb	r4, r4
 80027e0:	e7e4      	b.n	80027ac <__aeabi_d2f+0x60>
 80027e2:	2b00      	cmp	r3, #0
 80027e4:	d032      	beq.n	800284c <__aeabi_d2f+0x100>
 80027e6:	2080      	movs	r0, #128	; 0x80
 80027e8:	03c0      	lsls	r0, r0, #15
 80027ea:	4303      	orrs	r3, r0
 80027ec:	025b      	lsls	r3, r3, #9
 80027ee:	0a5b      	lsrs	r3, r3, #9
 80027f0:	e7dc      	b.n	80027ac <__aeabi_d2f+0x60>
 80027f2:	0032      	movs	r2, r6
 80027f4:	3217      	adds	r2, #23
 80027f6:	db14      	blt.n	8002822 <__aeabi_d2f+0xd6>
 80027f8:	2280      	movs	r2, #128	; 0x80
 80027fa:	271e      	movs	r7, #30
 80027fc:	0412      	lsls	r2, r2, #16
 80027fe:	4313      	orrs	r3, r2
 8002800:	1bbf      	subs	r7, r7, r6
 8002802:	2f1f      	cmp	r7, #31
 8002804:	dc0f      	bgt.n	8002826 <__aeabi_d2f+0xda>
 8002806:	4a14      	ldr	r2, [pc, #80]	; (8002858 <__aeabi_d2f+0x10c>)
 8002808:	4694      	mov	ip, r2
 800280a:	4464      	add	r4, ip
 800280c:	002a      	movs	r2, r5
 800280e:	40a5      	lsls	r5, r4
 8002810:	002e      	movs	r6, r5
 8002812:	40a3      	lsls	r3, r4
 8002814:	1e75      	subs	r5, r6, #1
 8002816:	41ae      	sbcs	r6, r5
 8002818:	40fa      	lsrs	r2, r7
 800281a:	4333      	orrs	r3, r6
 800281c:	4313      	orrs	r3, r2
 800281e:	2600      	movs	r6, #0
 8002820:	e7b0      	b.n	8002784 <__aeabi_d2f+0x38>
 8002822:	2400      	movs	r4, #0
 8002824:	e7d5      	b.n	80027d2 <__aeabi_d2f+0x86>
 8002826:	2202      	movs	r2, #2
 8002828:	4252      	negs	r2, r2
 800282a:	1b96      	subs	r6, r2, r6
 800282c:	001a      	movs	r2, r3
 800282e:	40f2      	lsrs	r2, r6
 8002830:	2f20      	cmp	r7, #32
 8002832:	d009      	beq.n	8002848 <__aeabi_d2f+0xfc>
 8002834:	4809      	ldr	r0, [pc, #36]	; (800285c <__aeabi_d2f+0x110>)
 8002836:	4684      	mov	ip, r0
 8002838:	4464      	add	r4, ip
 800283a:	40a3      	lsls	r3, r4
 800283c:	432b      	orrs	r3, r5
 800283e:	1e5d      	subs	r5, r3, #1
 8002840:	41ab      	sbcs	r3, r5
 8002842:	2600      	movs	r6, #0
 8002844:	4313      	orrs	r3, r2
 8002846:	e79d      	b.n	8002784 <__aeabi_d2f+0x38>
 8002848:	2300      	movs	r3, #0
 800284a:	e7f7      	b.n	800283c <__aeabi_d2f+0xf0>
 800284c:	2300      	movs	r3, #0
 800284e:	e7ad      	b.n	80027ac <__aeabi_d2f+0x60>
 8002850:	0034      	movs	r4, r6
 8002852:	e7bf      	b.n	80027d4 <__aeabi_d2f+0x88>
 8002854:	fffffc80 	.word	0xfffffc80
 8002858:	fffffc82 	.word	0xfffffc82
 800285c:	fffffca2 	.word	0xfffffca2

08002860 <__clzsi2>:
 8002860:	211c      	movs	r1, #28
 8002862:	2301      	movs	r3, #1
 8002864:	041b      	lsls	r3, r3, #16
 8002866:	4298      	cmp	r0, r3
 8002868:	d301      	bcc.n	800286e <__clzsi2+0xe>
 800286a:	0c00      	lsrs	r0, r0, #16
 800286c:	3910      	subs	r1, #16
 800286e:	0a1b      	lsrs	r3, r3, #8
 8002870:	4298      	cmp	r0, r3
 8002872:	d301      	bcc.n	8002878 <__clzsi2+0x18>
 8002874:	0a00      	lsrs	r0, r0, #8
 8002876:	3908      	subs	r1, #8
 8002878:	091b      	lsrs	r3, r3, #4
 800287a:	4298      	cmp	r0, r3
 800287c:	d301      	bcc.n	8002882 <__clzsi2+0x22>
 800287e:	0900      	lsrs	r0, r0, #4
 8002880:	3904      	subs	r1, #4
 8002882:	a202      	add	r2, pc, #8	; (adr r2, 800288c <__clzsi2+0x2c>)
 8002884:	5c10      	ldrb	r0, [r2, r0]
 8002886:	1840      	adds	r0, r0, r1
 8002888:	4770      	bx	lr
 800288a:	46c0      	nop			; (mov r8, r8)
 800288c:	02020304 	.word	0x02020304
 8002890:	01010101 	.word	0x01010101
	...

0800289c <HAL_InitTick>:
  *       implementation  in user file.
  * @param TickPriority Tick interrupt priority.
  * @retval HAL status
  */
__weak HAL_StatusTypeDef HAL_InitTick(uint32_t TickPriority)
{
 800289c:	b510      	push	{r4, lr}
 800289e:	0004      	movs	r4, r0
  /*Configure the SysTick to have interrupt in 1ms time basis*/
  HAL_SYSTICK_Config(HAL_RCC_GetHCLKFreq()/1000U);
 80028a0:	f000 fee6 	bl	8003670 <HAL_RCC_GetHCLKFreq>
 80028a4:	21fa      	movs	r1, #250	; 0xfa
 80028a6:	0089      	lsls	r1, r1, #2
 80028a8:	f7fd fc2e 	bl	8000108 <__udivsi3>
 80028ac:	f000 f866 	bl	800297c <HAL_SYSTICK_Config>

  /*Configure the SysTick IRQ priority */
  HAL_NVIC_SetPriority(SysTick_IRQn, TickPriority ,0U);
 80028b0:	2001      	movs	r0, #1
 80028b2:	2200      	movs	r2, #0
 80028b4:	0021      	movs	r1, r4
 80028b6:	4240      	negs	r0, r0
 80028b8:	f000 f830 	bl	800291c <HAL_NVIC_SetPriority>

   /* Return function status */
  return HAL_OK;
}
 80028bc:	2000      	movs	r0, #0
 80028be:	bd10      	pop	{r4, pc}

080028c0 <HAL_Init>:
  __HAL_FLASH_PREFETCH_BUFFER_ENABLE();
 80028c0:	2310      	movs	r3, #16
 80028c2:	4a06      	ldr	r2, [pc, #24]	; (80028dc <HAL_Init+0x1c>)
{
 80028c4:	b510      	push	{r4, lr}
  __HAL_FLASH_PREFETCH_BUFFER_ENABLE();
 80028c6:	6811      	ldr	r1, [r2, #0]
  HAL_InitTick(TICK_INT_PRIORITY);
 80028c8:	2000      	movs	r0, #0
  __HAL_FLASH_PREFETCH_BUFFER_ENABLE();
 80028ca:	430b      	orrs	r3, r1
 80028cc:	6013      	str	r3, [r2, #0]
  HAL_InitTick(TICK_INT_PRIORITY);
 80028ce:	f7ff ffe5 	bl	800289c <HAL_InitTick>
  HAL_MspInit();
 80028d2:	f001 f907 	bl	8003ae4 <HAL_MspInit>
}
 80028d6:	2000      	movs	r0, #0
 80028d8:	bd10      	pop	{r4, pc}
 80028da:	46c0      	nop			; (mov r8, r8)
 80028dc:	40022000 	.word	0x40022000

080028e0 <HAL_IncTick>:
  *       implementations in user file.
  * @retval None
  */
__weak void HAL_IncTick(void)
{
  uwTick++;
 80028e0:	4a02      	ldr	r2, [pc, #8]	; (80028ec <HAL_IncTick+0xc>)
 80028e2:	6813      	ldr	r3, [r2, #0]
 80028e4:	3301      	adds	r3, #1
 80028e6:	6013      	str	r3, [r2, #0]
}
 80028e8:	4770      	bx	lr
 80028ea:	46c0      	nop			; (mov r8, r8)
 80028ec:	20000030 	.word	0x20000030

080028f0 <HAL_GetTick>:
  *       implementations in user file.
  * @retval tick value
  */
__weak uint32_t HAL_GetTick(void)
{
  return uwTick;
 80028f0:	4b01      	ldr	r3, [pc, #4]	; (80028f8 <HAL_GetTick+0x8>)
 80028f2:	6818      	ldr	r0, [r3, #0]
}
 80028f4:	4770      	bx	lr
 80028f6:	46c0      	nop			; (mov r8, r8)
 80028f8:	20000030 	.word	0x20000030

080028fc <HAL_Delay>:
  *       implementations in user file.
  * @param Delay specifies the delay time length, in milliseconds.
  * @retval None
  */
__weak void HAL_Delay(__IO uint32_t Delay)
{
 80028fc:	b537      	push	{r0, r1, r2, r4, r5, lr}
 80028fe:	9001      	str	r0, [sp, #4]
  uint32_t tickstart = HAL_GetTick();
 8002900:	f7ff fff6 	bl	80028f0 <HAL_GetTick>
  uint32_t wait = Delay;
 8002904:	9c01      	ldr	r4, [sp, #4]
  uint32_t tickstart = HAL_GetTick();
 8002906:	0005      	movs	r5, r0
  
  /* Add a period to guarantee minimum wait */
  if (wait < HAL_MAX_DELAY)
  {
     wait++;
 8002908:	1c63      	adds	r3, r4, #1
 800290a:	1e5a      	subs	r2, r3, #1
 800290c:	4193      	sbcs	r3, r2
 800290e:	18e4      	adds	r4, r4, r3
  }
  
  while((HAL_GetTick() - tickstart) < wait)
 8002910:	f7ff ffee 	bl	80028f0 <HAL_GetTick>
 8002914:	1b40      	subs	r0, r0, r5
 8002916:	42a0      	cmp	r0, r4
 8002918:	d3fa      	bcc.n	8002910 <HAL_Delay+0x14>
  {
  }
}
 800291a:	bd37      	pop	{r0, r1, r2, r4, r5, pc}

0800291c <HAL_NVIC_SetPriority>:
  *         with stm32f0xx devices, this parameter is a dummy value and it is ignored, because 
  *         no subpriority supported in Cortex M0 based products.   
  * @retval None
  */
void HAL_NVIC_SetPriority(IRQn_Type IRQn, uint32_t PreemptPriority, uint32_t SubPriority)
{ 
 800291c:	b570      	push	{r4, r5, r6, lr}
 800291e:	0189      	lsls	r1, r1, #6
  \param [in]      IRQn  Interrupt number.
  \param [in]  priority  Priority to set.
 */
__STATIC_INLINE void NVIC_SetPriority(IRQn_Type IRQn, uint32_t priority)
{
  if ((int32_t)(IRQn) < 0)
 8002920:	2800      	cmp	r0, #0
 8002922:	da14      	bge.n	800294e <HAL_NVIC_SetPriority+0x32>
  {
    SCB->SHP[_SHP_IDX(IRQn)] = ((uint32_t)(SCB->SHP[_SHP_IDX(IRQn)] & ~(0xFFUL << _BIT_SHIFT(IRQn))) |
 8002924:	230f      	movs	r3, #15
 8002926:	b2c0      	uxtb	r0, r0
 8002928:	4003      	ands	r3, r0
 800292a:	3b08      	subs	r3, #8
 800292c:	4a11      	ldr	r2, [pc, #68]	; (8002974 <HAL_NVIC_SetPriority+0x58>)
 800292e:	089b      	lsrs	r3, r3, #2
 8002930:	009b      	lsls	r3, r3, #2
 8002932:	189b      	adds	r3, r3, r2
 8002934:	2203      	movs	r2, #3
 8002936:	4010      	ands	r0, r2
 8002938:	4090      	lsls	r0, r2
 800293a:	32fc      	adds	r2, #252	; 0xfc
 800293c:	0015      	movs	r5, r2
       (((priority << (8U - __NVIC_PRIO_BITS)) & (uint32_t)0xFFUL) << _BIT_SHIFT(IRQn)));
 800293e:	4011      	ands	r1, r2
    SCB->SHP[_SHP_IDX(IRQn)] = ((uint32_t)(SCB->SHP[_SHP_IDX(IRQn)] & ~(0xFFUL << _BIT_SHIFT(IRQn))) |
 8002940:	4085      	lsls	r5, r0
       (((priority << (8U - __NVIC_PRIO_BITS)) & (uint32_t)0xFFUL) << _BIT_SHIFT(IRQn)));
 8002942:	4081      	lsls	r1, r0
    SCB->SHP[_SHP_IDX(IRQn)] = ((uint32_t)(SCB->SHP[_SHP_IDX(IRQn)] & ~(0xFFUL << _BIT_SHIFT(IRQn))) |
 8002944:	69dc      	ldr	r4, [r3, #28]
 8002946:	43ac      	bics	r4, r5
 8002948:	4321      	orrs	r1, r4
 800294a:	61d9      	str	r1, [r3, #28]
  /* Check the parameters */
  assert_param(IS_NVIC_PREEMPTION_PRIORITY(PreemptPriority));
  NVIC_SetPriority(IRQn,PreemptPriority);
}
 800294c:	bd70      	pop	{r4, r5, r6, pc}
  }
  else
  {
    NVIC->IP[_IP_IDX(IRQn)]  = ((uint32_t)(NVIC->IP[_IP_IDX(IRQn)]  & ~(0xFFUL << _BIT_SHIFT(IRQn))) |
 800294e:	2503      	movs	r5, #3
 8002950:	0883      	lsrs	r3, r0, #2
 8002952:	4028      	ands	r0, r5
 8002954:	40a8      	lsls	r0, r5
 8002956:	35fc      	adds	r5, #252	; 0xfc
 8002958:	002e      	movs	r6, r5
 800295a:	4a07      	ldr	r2, [pc, #28]	; (8002978 <HAL_NVIC_SetPriority+0x5c>)
 800295c:	009b      	lsls	r3, r3, #2
 800295e:	189b      	adds	r3, r3, r2
 8002960:	22c0      	movs	r2, #192	; 0xc0
 8002962:	4086      	lsls	r6, r0
       (((priority << (8U - __NVIC_PRIO_BITS)) & (uint32_t)0xFFUL) << _BIT_SHIFT(IRQn)));
 8002964:	4029      	ands	r1, r5
 8002966:	4081      	lsls	r1, r0
    NVIC->IP[_IP_IDX(IRQn)]  = ((uint32_t)(NVIC->IP[_IP_IDX(IRQn)]  & ~(0xFFUL << _BIT_SHIFT(IRQn))) |
 8002968:	0092      	lsls	r2, r2, #2
 800296a:	589c      	ldr	r4, [r3, r2]
 800296c:	43b4      	bics	r4, r6
 800296e:	4321      	orrs	r1, r4
 8002970:	5099      	str	r1, [r3, r2]
 8002972:	e7eb      	b.n	800294c <HAL_NVIC_SetPriority+0x30>
 8002974:	e000ed00 	.word	0xe000ed00
 8002978:	e000e100 	.word	0xe000e100

0800297c <HAL_SYSTICK_Config>:
           function <b>SysTick_Config</b> is not included. In this case, the file <b><i>device</i>.h</b>
           must contain a vendor-specific implementation of this function.
 */
__STATIC_INLINE uint32_t SysTick_Config(uint32_t ticks)
{
  if ((ticks - 1UL) > SysTick_LOAD_RELOAD_Msk)
 800297c:	4a09      	ldr	r2, [pc, #36]	; (80029a4 <HAL_SYSTICK_Config+0x28>)
 800297e:	1e43      	subs	r3, r0, #1
  {
    return (1UL);                                                   /* Reload value impossible */
 8002980:	2001      	movs	r0, #1
  if ((ticks - 1UL) > SysTick_LOAD_RELOAD_Msk)
 8002982:	4293      	cmp	r3, r2
 8002984:	d80d      	bhi.n	80029a2 <HAL_SYSTICK_Config+0x26>
    SCB->SHP[_SHP_IDX(IRQn)] = ((uint32_t)(SCB->SHP[_SHP_IDX(IRQn)] & ~(0xFFUL << _BIT_SHIFT(IRQn))) |
 8002986:	21c0      	movs	r1, #192	; 0xc0
  }

  SysTick->LOAD  = (uint32_t)(ticks - 1UL);                         /* set reload register */
 8002988:	4a07      	ldr	r2, [pc, #28]	; (80029a8 <HAL_SYSTICK_Config+0x2c>)
    SCB->SHP[_SHP_IDX(IRQn)] = ((uint32_t)(SCB->SHP[_SHP_IDX(IRQn)] & ~(0xFFUL << _BIT_SHIFT(IRQn))) |
 800298a:	4808      	ldr	r0, [pc, #32]	; (80029ac <HAL_SYSTICK_Config+0x30>)
  SysTick->LOAD  = (uint32_t)(ticks - 1UL);                         /* set reload register */
 800298c:	6053      	str	r3, [r2, #4]
    SCB->SHP[_SHP_IDX(IRQn)] = ((uint32_t)(SCB->SHP[_SHP_IDX(IRQn)] & ~(0xFFUL << _BIT_SHIFT(IRQn))) |
 800298e:	6a03      	ldr	r3, [r0, #32]
 8002990:	0609      	lsls	r1, r1, #24
 8002992:	021b      	lsls	r3, r3, #8
 8002994:	0a1b      	lsrs	r3, r3, #8
 8002996:	430b      	orrs	r3, r1
 8002998:	6203      	str	r3, [r0, #32]
  NVIC_SetPriority (SysTick_IRQn, (1UL << __NVIC_PRIO_BITS) - 1UL); /* set Priority for Systick Interrupt */
  SysTick->VAL   = 0UL;                                             /* Load the SysTick Counter Value */
 800299a:	2000      	movs	r0, #0
  SysTick->CTRL  = SysTick_CTRL_CLKSOURCE_Msk |
 800299c:	2307      	movs	r3, #7
  SysTick->VAL   = 0UL;                                             /* Load the SysTick Counter Value */
 800299e:	6090      	str	r0, [r2, #8]
  SysTick->CTRL  = SysTick_CTRL_CLKSOURCE_Msk |
 80029a0:	6013      	str	r3, [r2, #0]
  *                  - 1  Function failed.
  */
uint32_t HAL_SYSTICK_Config(uint32_t TicksNumb)
{
   return SysTick_Config(TicksNumb);
}
 80029a2:	4770      	bx	lr
 80029a4:	00ffffff 	.word	0x00ffffff
 80029a8:	e000e010 	.word	0xe000e010
 80029ac:	e000ed00 	.word	0xe000ed00

080029b0 <HAL_SYSTICK_CLKSourceConfig>:
  *             @arg SYSTICK_CLKSOURCE_HCLK_DIV8: AHB clock divided by 8 selected as SysTick clock source.
  *             @arg SYSTICK_CLKSOURCE_HCLK: AHB clock selected as SysTick clock source.
  * @retval None
  */
void HAL_SYSTICK_CLKSourceConfig(uint32_t CLKSource)
{
 80029b0:	4b05      	ldr	r3, [pc, #20]	; (80029c8 <HAL_SYSTICK_CLKSourceConfig+0x18>)
  /* Check the parameters */
  assert_param(IS_SYSTICK_CLK_SOURCE(CLKSource));
  if (CLKSource == SYSTICK_CLKSOURCE_HCLK)
  {
    SysTick->CTRL |= SYSTICK_CLKSOURCE_HCLK;
 80029b2:	681a      	ldr	r2, [r3, #0]
  if (CLKSource == SYSTICK_CLKSOURCE_HCLK)
 80029b4:	2804      	cmp	r0, #4
 80029b6:	d102      	bne.n	80029be <HAL_SYSTICK_CLKSourceConfig+0xe>
    SysTick->CTRL |= SYSTICK_CLKSOURCE_HCLK;
 80029b8:	4310      	orrs	r0, r2
 80029ba:	6018      	str	r0, [r3, #0]
  }
  else
  {
    SysTick->CTRL &= ~SYSTICK_CLKSOURCE_HCLK;
  }
}
 80029bc:	4770      	bx	lr
    SysTick->CTRL &= ~SYSTICK_CLKSOURCE_HCLK;
 80029be:	2104      	movs	r1, #4
 80029c0:	438a      	bics	r2, r1
 80029c2:	601a      	str	r2, [r3, #0]
}
 80029c4:	e7fa      	b.n	80029bc <HAL_SYSTICK_CLKSourceConfig+0xc>
 80029c6:	46c0      	nop			; (mov r8, r8)
 80029c8:	e000e010 	.word	0xe000e010

080029cc <HAL_SYSTICK_Callback>:
__weak void HAL_SYSTICK_Callback(void)
{
  /* NOTE : This function Should not be modified, when the callback is needed,
            the HAL_SYSTICK_Callback could be implemented in the user file
   */
}
 80029cc:	4770      	bx	lr

080029ce <HAL_SYSTICK_IRQHandler>:
{
 80029ce:	b510      	push	{r4, lr}
  HAL_SYSTICK_Callback();
 80029d0:	f7ff fffc 	bl	80029cc <HAL_SYSTICK_Callback>
}
 80029d4:	bd10      	pop	{r4, pc}
	...

080029d8 <HAL_GPIO_Init>:
  * @param  GPIO_Init pointer to a GPIO_InitTypeDef structure that contains
  *         the configuration information for the specified GPIO peripheral.
  * @retval None
  */
void HAL_GPIO_Init(GPIO_TypeDef  *GPIOx, GPIO_InitTypeDef *GPIO_Init)
{ 
 80029d8:	b5f0      	push	{r4, r5, r6, r7, lr}
  assert_param(IS_GPIO_PIN(GPIO_Init->Pin));
  assert_param(IS_GPIO_MODE(GPIO_Init->Mode));
  assert_param(IS_GPIO_PULL(GPIO_Init->Pull)); 

  /* Configure the port pins */
  while (((GPIO_Init->Pin) >> position) != RESET)
 80029da:	680b      	ldr	r3, [r1, #0]
{ 
 80029dc:	b087      	sub	sp, #28
  while (((GPIO_Init->Pin) >> position) != RESET)
 80029de:	9302      	str	r3, [sp, #8]
  uint32_t position = 0x00U;
 80029e0:	2300      	movs	r3, #0
{ 
 80029e2:	9101      	str	r1, [sp, #4]
  while (((GPIO_Init->Pin) >> position) != RESET)
 80029e4:	9a02      	ldr	r2, [sp, #8]
 80029e6:	40da      	lsrs	r2, r3
 80029e8:	d101      	bne.n	80029ee <HAL_GPIO_Init+0x16>
      }
    }
    
    position++;
  } 
}
 80029ea:	b007      	add	sp, #28
 80029ec:	bdf0      	pop	{r4, r5, r6, r7, pc}
    iocurrent = (GPIO_Init->Pin) & (1U << position);
 80029ee:	2201      	movs	r2, #1
 80029f0:	409a      	lsls	r2, r3
 80029f2:	9203      	str	r2, [sp, #12]
 80029f4:	9903      	ldr	r1, [sp, #12]
 80029f6:	9a02      	ldr	r2, [sp, #8]
 80029f8:	400a      	ands	r2, r1
 80029fa:	9200      	str	r2, [sp, #0]
    if(iocurrent)
 80029fc:	d100      	bne.n	8002a00 <HAL_GPIO_Init+0x28>
 80029fe:	e08c      	b.n	8002b1a <HAL_GPIO_Init+0x142>
      if((GPIO_Init->Mode == GPIO_MODE_AF_PP) || (GPIO_Init->Mode == GPIO_MODE_AF_OD)) 
 8002a00:	9a01      	ldr	r2, [sp, #4]
 8002a02:	2110      	movs	r1, #16
 8002a04:	6852      	ldr	r2, [r2, #4]
 8002a06:	0016      	movs	r6, r2
 8002a08:	438e      	bics	r6, r1
 8002a0a:	2e02      	cmp	r6, #2
 8002a0c:	d10e      	bne.n	8002a2c <HAL_GPIO_Init+0x54>
        CLEAR_BIT(temp, 0xFU << ((uint32_t)(position & 0x07U) * 4U)) ;      
 8002a0e:	2507      	movs	r5, #7
 8002a10:	401d      	ands	r5, r3
 8002a12:	00ad      	lsls	r5, r5, #2
 8002a14:	3901      	subs	r1, #1
 8002a16:	40a9      	lsls	r1, r5
        temp = GPIOx->AFR[position >> 3];
 8002a18:	08dc      	lsrs	r4, r3, #3
 8002a1a:	00a4      	lsls	r4, r4, #2
 8002a1c:	1904      	adds	r4, r0, r4
 8002a1e:	6a27      	ldr	r7, [r4, #32]
        CLEAR_BIT(temp, 0xFU << ((uint32_t)(position & 0x07U) * 4U)) ;      
 8002a20:	438f      	bics	r7, r1
        SET_BIT(temp, (uint32_t)(GPIO_Init->Alternate) << (((uint32_t)position & 0x07U) * 4U));       
 8002a22:	9901      	ldr	r1, [sp, #4]
 8002a24:	6909      	ldr	r1, [r1, #16]
 8002a26:	40a9      	lsls	r1, r5
 8002a28:	430f      	orrs	r7, r1
        GPIOx->AFR[position >> 3U] = temp;
 8002a2a:	6227      	str	r7, [r4, #32]
      CLEAR_BIT(temp, GPIO_MODER_MODER0 << (position * 2U));   
 8002a2c:	2403      	movs	r4, #3
 8002a2e:	005f      	lsls	r7, r3, #1
 8002a30:	40bc      	lsls	r4, r7
 8002a32:	43e4      	mvns	r4, r4
      temp = GPIOx->MODER;
 8002a34:	6805      	ldr	r5, [r0, #0]
      if ((GPIO_Init->Mode == GPIO_MODE_OUTPUT_PP) || (GPIO_Init->Mode == GPIO_MODE_AF_PP) ||
 8002a36:	3e01      	subs	r6, #1
      CLEAR_BIT(temp, GPIO_MODER_MODER0 << (position * 2U));   
 8002a38:	4025      	ands	r5, r4
 8002a3a:	46ac      	mov	ip, r5
      SET_BIT(temp, (GPIO_Init->Mode & GPIO_MODE) << (position * 2U));
 8002a3c:	2503      	movs	r5, #3
 8002a3e:	4015      	ands	r5, r2
 8002a40:	40bd      	lsls	r5, r7
 8002a42:	4661      	mov	r1, ip
 8002a44:	430d      	orrs	r5, r1
      GPIOx->MODER = temp;
 8002a46:	6005      	str	r5, [r0, #0]
      if ((GPIO_Init->Mode == GPIO_MODE_OUTPUT_PP) || (GPIO_Init->Mode == GPIO_MODE_AF_PP) ||
 8002a48:	2e01      	cmp	r6, #1
 8002a4a:	d80f      	bhi.n	8002a6c <HAL_GPIO_Init+0x94>
        SET_BIT(temp, GPIO_Init->Speed << (position * 2U));
 8002a4c:	9901      	ldr	r1, [sp, #4]
        temp = GPIOx->OSPEEDR; 
 8002a4e:	6886      	ldr	r6, [r0, #8]
        SET_BIT(temp, GPIO_Init->Speed << (position * 2U));
 8002a50:	68cd      	ldr	r5, [r1, #12]
        CLEAR_BIT(temp, GPIO_OSPEEDER_OSPEEDR0 << (position * 2U));
 8002a52:	4026      	ands	r6, r4
        SET_BIT(temp, GPIO_Init->Speed << (position * 2U));
 8002a54:	40bd      	lsls	r5, r7
 8002a56:	4335      	orrs	r5, r6
        GPIOx->OSPEEDR = temp;
 8002a58:	6085      	str	r5, [r0, #8]
        temp = GPIOx->OTYPER;
 8002a5a:	6846      	ldr	r6, [r0, #4]
        CLEAR_BIT(temp, GPIO_OTYPER_OT_0 << position) ;
 8002a5c:	9903      	ldr	r1, [sp, #12]
        SET_BIT(temp, ((GPIO_Init->Mode & GPIO_OUTPUT_TYPE) >> 4U) << position);
 8002a5e:	0915      	lsrs	r5, r2, #4
        CLEAR_BIT(temp, GPIO_OTYPER_OT_0 << position) ;
 8002a60:	438e      	bics	r6, r1
        SET_BIT(temp, ((GPIO_Init->Mode & GPIO_OUTPUT_TYPE) >> 4U) << position);
 8002a62:	2101      	movs	r1, #1
 8002a64:	400d      	ands	r5, r1
 8002a66:	409d      	lsls	r5, r3
 8002a68:	4335      	orrs	r5, r6
        GPIOx->OTYPER = temp;
 8002a6a:	6045      	str	r5, [r0, #4]
      temp = GPIOx->PUPDR;
 8002a6c:	68c5      	ldr	r5, [r0, #12]
      SET_BIT(temp, (GPIO_Init->Pull) << (position * 2U));
 8002a6e:	9901      	ldr	r1, [sp, #4]
      CLEAR_BIT(temp, GPIO_PUPDR_PUPDR0 << (position * 2U));
 8002a70:	402c      	ands	r4, r5
      SET_BIT(temp, (GPIO_Init->Pull) << (position * 2U));
 8002a72:	688d      	ldr	r5, [r1, #8]
      if((GPIO_Init->Mode & EXTI_MODE) == EXTI_MODE) 
 8002a74:	2180      	movs	r1, #128	; 0x80
      SET_BIT(temp, (GPIO_Init->Pull) << (position * 2U));
 8002a76:	40bd      	lsls	r5, r7
      if((GPIO_Init->Mode & EXTI_MODE) == EXTI_MODE) 
 8002a78:	0549      	lsls	r1, r1, #21
      SET_BIT(temp, (GPIO_Init->Pull) << (position * 2U));
 8002a7a:	432c      	orrs	r4, r5
      GPIOx->PUPDR = temp;
 8002a7c:	60c4      	str	r4, [r0, #12]
      if((GPIO_Init->Mode & EXTI_MODE) == EXTI_MODE) 
 8002a7e:	420a      	tst	r2, r1
 8002a80:	d04b      	beq.n	8002b1a <HAL_GPIO_Init+0x142>
        __HAL_RCC_SYSCFG_CLK_ENABLE();
 8002a82:	2101      	movs	r1, #1
 8002a84:	4c26      	ldr	r4, [pc, #152]	; (8002b20 <HAL_GPIO_Init+0x148>)
        CLEAR_BIT(temp, (0x0FU) << (4U * (position & 0x03U)));
 8002a86:	2603      	movs	r6, #3
        __HAL_RCC_SYSCFG_CLK_ENABLE();
 8002a88:	69a5      	ldr	r5, [r4, #24]
        CLEAR_BIT(temp, (0x0FU) << (4U * (position & 0x03U)));
 8002a8a:	401e      	ands	r6, r3
        __HAL_RCC_SYSCFG_CLK_ENABLE();
 8002a8c:	430d      	orrs	r5, r1
 8002a8e:	61a5      	str	r5, [r4, #24]
 8002a90:	69a4      	ldr	r4, [r4, #24]
        temp = SYSCFG->EXTICR[position >> 2];
 8002a92:	089d      	lsrs	r5, r3, #2
        __HAL_RCC_SYSCFG_CLK_ENABLE();
 8002a94:	400c      	ands	r4, r1
 8002a96:	9405      	str	r4, [sp, #20]
 8002a98:	9c05      	ldr	r4, [sp, #20]
        CLEAR_BIT(temp, (0x0FU) << (4U * (position & 0x03U)));
 8002a9a:	240f      	movs	r4, #15
 8002a9c:	4921      	ldr	r1, [pc, #132]	; (8002b24 <HAL_GPIO_Init+0x14c>)
 8002a9e:	00ad      	lsls	r5, r5, #2
 8002aa0:	00b6      	lsls	r6, r6, #2
 8002aa2:	186d      	adds	r5, r5, r1
 8002aa4:	40b4      	lsls	r4, r6
        SET_BIT(temp, (GPIO_GET_INDEX(GPIOx)) << (4U * (position & 0x03U)));
 8002aa6:	2190      	movs	r1, #144	; 0x90
        temp = SYSCFG->EXTICR[position >> 2];
 8002aa8:	68af      	ldr	r7, [r5, #8]
        SET_BIT(temp, (GPIO_GET_INDEX(GPIOx)) << (4U * (position & 0x03U)));
 8002aaa:	05c9      	lsls	r1, r1, #23
        CLEAR_BIT(temp, (0x0FU) << (4U * (position & 0x03U)));
 8002aac:	43a7      	bics	r7, r4
        SET_BIT(temp, (GPIO_GET_INDEX(GPIOx)) << (4U * (position & 0x03U)));
 8002aae:	2400      	movs	r4, #0
 8002ab0:	4288      	cmp	r0, r1
 8002ab2:	d00c      	beq.n	8002ace <HAL_GPIO_Init+0xf6>
 8002ab4:	491c      	ldr	r1, [pc, #112]	; (8002b28 <HAL_GPIO_Init+0x150>)
 8002ab6:	3401      	adds	r4, #1
 8002ab8:	4288      	cmp	r0, r1
 8002aba:	d008      	beq.n	8002ace <HAL_GPIO_Init+0xf6>
 8002abc:	491b      	ldr	r1, [pc, #108]	; (8002b2c <HAL_GPIO_Init+0x154>)
 8002abe:	3401      	adds	r4, #1
 8002ac0:	4288      	cmp	r0, r1
 8002ac2:	d004      	beq.n	8002ace <HAL_GPIO_Init+0xf6>
 8002ac4:	491a      	ldr	r1, [pc, #104]	; (8002b30 <HAL_GPIO_Init+0x158>)
 8002ac6:	3403      	adds	r4, #3
 8002ac8:	4288      	cmp	r0, r1
 8002aca:	d100      	bne.n	8002ace <HAL_GPIO_Init+0xf6>
 8002acc:	3c02      	subs	r4, #2
 8002ace:	40b4      	lsls	r4, r6
        CLEAR_BIT(temp, (uint32_t)iocurrent);
 8002ad0:	9900      	ldr	r1, [sp, #0]
        SET_BIT(temp, (GPIO_GET_INDEX(GPIOx)) << (4U * (position & 0x03U)));
 8002ad2:	433c      	orrs	r4, r7
          SET_BIT(temp, iocurrent); 
 8002ad4:	000e      	movs	r6, r1
        SYSCFG->EXTICR[position >> 2] = temp;
 8002ad6:	60ac      	str	r4, [r5, #8]
        temp = EXTI->IMR;
 8002ad8:	4c16      	ldr	r4, [pc, #88]	; (8002b34 <HAL_GPIO_Init+0x15c>)
        CLEAR_BIT(temp, (uint32_t)iocurrent);
 8002ada:	43cd      	mvns	r5, r1
        temp = EXTI->IMR;
 8002adc:	6827      	ldr	r7, [r4, #0]
          SET_BIT(temp, iocurrent); 
 8002ade:	433e      	orrs	r6, r7
        if((GPIO_Init->Mode & GPIO_MODE_IT) == GPIO_MODE_IT)
 8002ae0:	03d1      	lsls	r1, r2, #15
 8002ae2:	d401      	bmi.n	8002ae8 <HAL_GPIO_Init+0x110>
        CLEAR_BIT(temp, (uint32_t)iocurrent);
 8002ae4:	003e      	movs	r6, r7
 8002ae6:	402e      	ands	r6, r5
        EXTI->IMR = temp;
 8002ae8:	6026      	str	r6, [r4, #0]
        temp = EXTI->EMR;
 8002aea:	6867      	ldr	r7, [r4, #4]
          SET_BIT(temp, iocurrent); 
 8002aec:	9e00      	ldr	r6, [sp, #0]
 8002aee:	433e      	orrs	r6, r7
        if((GPIO_Init->Mode & GPIO_MODE_EVT) == GPIO_MODE_EVT)
 8002af0:	0391      	lsls	r1, r2, #14
 8002af2:	d401      	bmi.n	8002af8 <HAL_GPIO_Init+0x120>
        CLEAR_BIT(temp, (uint32_t)iocurrent);      
 8002af4:	003e      	movs	r6, r7
 8002af6:	402e      	ands	r6, r5
        EXTI->EMR = temp;
 8002af8:	6066      	str	r6, [r4, #4]
        temp = EXTI->RTSR;
 8002afa:	68a7      	ldr	r7, [r4, #8]
          SET_BIT(temp, iocurrent); 
 8002afc:	9e00      	ldr	r6, [sp, #0]
 8002afe:	433e      	orrs	r6, r7
        if((GPIO_Init->Mode & RISING_EDGE) == RISING_EDGE)
 8002b00:	02d1      	lsls	r1, r2, #11
 8002b02:	d401      	bmi.n	8002b08 <HAL_GPIO_Init+0x130>
        CLEAR_BIT(temp, (uint32_t)iocurrent); 
 8002b04:	003e      	movs	r6, r7
 8002b06:	402e      	ands	r6, r5
        EXTI->RTSR = temp;
 8002b08:	60a6      	str	r6, [r4, #8]
        temp = EXTI->FTSR;
 8002b0a:	68e6      	ldr	r6, [r4, #12]
          SET_BIT(temp, iocurrent); 
 8002b0c:	9f00      	ldr	r7, [sp, #0]
 8002b0e:	4337      	orrs	r7, r6
        if((GPIO_Init->Mode & FALLING_EDGE) == FALLING_EDGE)
 8002b10:	0292      	lsls	r2, r2, #10
 8002b12:	d401      	bmi.n	8002b18 <HAL_GPIO_Init+0x140>
        CLEAR_BIT(temp, (uint32_t)iocurrent); 
 8002b14:	402e      	ands	r6, r5
 8002b16:	0037      	movs	r7, r6
        EXTI->FTSR = temp;
 8002b18:	60e7      	str	r7, [r4, #12]
    position++;
 8002b1a:	3301      	adds	r3, #1
 8002b1c:	e762      	b.n	80029e4 <HAL_GPIO_Init+0xc>
 8002b1e:	46c0      	nop			; (mov r8, r8)
 8002b20:	40021000 	.word	0x40021000
 8002b24:	40010000 	.word	0x40010000
 8002b28:	48000400 	.word	0x48000400
 8002b2c:	48000800 	.word	0x48000800
 8002b30:	48000c00 	.word	0x48000c00
 8002b34:	40010400 	.word	0x40010400

08002b38 <HAL_GPIO_WritePin>:
{
  /* Check the parameters */
  assert_param(IS_GPIO_PIN(GPIO_Pin));
  assert_param(IS_GPIO_PIN_ACTION(PinState));

  if (PinState != GPIO_PIN_RESET)
 8002b38:	2a00      	cmp	r2, #0
 8002b3a:	d001      	beq.n	8002b40 <HAL_GPIO_WritePin+0x8>
  {
    GPIOx->BSRR = (uint32_t)GPIO_Pin;
 8002b3c:	6181      	str	r1, [r0, #24]
  }
  else
  {
    GPIOx->BRR = (uint32_t)GPIO_Pin;
  }
}
 8002b3e:	4770      	bx	lr
    GPIOx->BRR = (uint32_t)GPIO_Pin;
 8002b40:	6281      	str	r1, [r0, #40]	; 0x28
}
 8002b42:	e7fc      	b.n	8002b3e <HAL_GPIO_WritePin+0x6>

08002b44 <I2C_Flush_TXDR>:
  */
static void I2C_Flush_TXDR(I2C_HandleTypeDef *hi2c)
{
  /* If a pending TXIS flag is set */
  /* Write a dummy data in TXDR to clear it */
  if (__HAL_I2C_GET_FLAG(hi2c, I2C_FLAG_TXIS) != RESET)
 8002b44:	6803      	ldr	r3, [r0, #0]
 8002b46:	699a      	ldr	r2, [r3, #24]
 8002b48:	0792      	lsls	r2, r2, #30
 8002b4a:	d501      	bpl.n	8002b50 <I2C_Flush_TXDR+0xc>
  {
    hi2c->Instance->TXDR = 0x00U;
 8002b4c:	2200      	movs	r2, #0
 8002b4e:	629a      	str	r2, [r3, #40]	; 0x28
  }

  /* Flush TX register if not empty */
  if (__HAL_I2C_GET_FLAG(hi2c, I2C_FLAG_TXE) == RESET)
 8002b50:	2201      	movs	r2, #1
 8002b52:	6999      	ldr	r1, [r3, #24]
 8002b54:	4211      	tst	r1, r2
 8002b56:	d102      	bne.n	8002b5e <I2C_Flush_TXDR+0x1a>
  {
    __HAL_I2C_CLEAR_FLAG(hi2c, I2C_FLAG_TXE);
 8002b58:	6999      	ldr	r1, [r3, #24]
 8002b5a:	430a      	orrs	r2, r1
 8002b5c:	619a      	str	r2, [r3, #24]
  }
}
 8002b5e:	4770      	bx	lr

08002b60 <I2C_TransferConfig>:
  *     @arg @ref I2C_GENERATE_START_READ Generate Restart for read request.
  *     @arg @ref I2C_GENERATE_START_WRITE Generate Restart for write request.
  * @retval None
  */
static void I2C_TransferConfig(I2C_HandleTypeDef *hi2c,  uint16_t DevAddress, uint8_t Size, uint32_t Mode, uint32_t Request)
{
 8002b60:	b530      	push	{r4, r5, lr}
  assert_param(IS_I2C_ALL_INSTANCE(hi2c->Instance));
  assert_param(IS_TRANSFER_MODE(Mode));
  assert_param(IS_TRANSFER_REQUEST(Request));

  /* Get the CR2 register value */
  tmpreg = hi2c->Instance->CR2;
 8002b62:	6804      	ldr	r4, [r0, #0]

  /* clear tmpreg specific bits */
  tmpreg &= (uint32_t)~((uint32_t)(I2C_CR2_SADD | I2C_CR2_NBYTES | I2C_CR2_RELOAD | I2C_CR2_AUTOEND | I2C_CR2_RD_WRN | I2C_CR2_START | I2C_CR2_STOP));
 8002b64:	4806      	ldr	r0, [pc, #24]	; (8002b80 <I2C_TransferConfig+0x20>)
  tmpreg = hi2c->Instance->CR2;
 8002b66:	6865      	ldr	r5, [r4, #4]

  /* update tmpreg */
  tmpreg |= (uint32_t)(((uint32_t)DevAddress & I2C_CR2_SADD) | (((uint32_t)Size << 16) & I2C_CR2_NBYTES) | \
 8002b68:	0589      	lsls	r1, r1, #22
  tmpreg &= (uint32_t)~((uint32_t)(I2C_CR2_SADD | I2C_CR2_NBYTES | I2C_CR2_RELOAD | I2C_CR2_AUTOEND | I2C_CR2_RD_WRN | I2C_CR2_START | I2C_CR2_STOP));
 8002b6a:	4028      	ands	r0, r5
  tmpreg |= (uint32_t)(((uint32_t)DevAddress & I2C_CR2_SADD) | (((uint32_t)Size << 16) & I2C_CR2_NBYTES) | \
 8002b6c:	9d03      	ldr	r5, [sp, #12]
 8002b6e:	0d89      	lsrs	r1, r1, #22
 8002b70:	432b      	orrs	r3, r5
 8002b72:	4319      	orrs	r1, r3
 8002b74:	0412      	lsls	r2, r2, #16
 8002b76:	430a      	orrs	r2, r1
 8002b78:	4302      	orrs	r2, r0
                       (uint32_t)Mode | (uint32_t)Request);

  /* update CR2 register */
  hi2c->Instance->CR2 = tmpreg;
 8002b7a:	6062      	str	r2, [r4, #4]
}
 8002b7c:	bd30      	pop	{r4, r5, pc}
 8002b7e:	46c0      	nop			; (mov r8, r8)
 8002b80:	fc009800 	.word	0xfc009800

08002b84 <I2C_WaitOnFlagUntilTimeout>:
{
 8002b84:	b5f8      	push	{r3, r4, r5, r6, r7, lr}
 8002b86:	0004      	movs	r4, r0
 8002b88:	000e      	movs	r6, r1
 8002b8a:	0017      	movs	r7, r2
 8002b8c:	001d      	movs	r5, r3
  while (__HAL_I2C_GET_FLAG(hi2c, Flag) == Status)
 8002b8e:	6822      	ldr	r2, [r4, #0]
 8002b90:	6993      	ldr	r3, [r2, #24]
 8002b92:	4033      	ands	r3, r6
 8002b94:	1b9b      	subs	r3, r3, r6
 8002b96:	4259      	negs	r1, r3
 8002b98:	414b      	adcs	r3, r1
 8002b9a:	42bb      	cmp	r3, r7
 8002b9c:	d001      	beq.n	8002ba2 <I2C_WaitOnFlagUntilTimeout+0x1e>
  return HAL_OK;
 8002b9e:	2000      	movs	r0, #0
 8002ba0:	e00e      	b.n	8002bc0 <I2C_WaitOnFlagUntilTimeout+0x3c>
    if (Timeout != HAL_MAX_DELAY)
 8002ba2:	1c6b      	adds	r3, r5, #1
 8002ba4:	d0f4      	beq.n	8002b90 <I2C_WaitOnFlagUntilTimeout+0xc>
      if ((Timeout == 0U) || ((HAL_GetTick() - Tickstart) > Timeout))
 8002ba6:	2d00      	cmp	r5, #0
 8002ba8:	d10b      	bne.n	8002bc2 <I2C_WaitOnFlagUntilTimeout+0x3e>
        hi2c->State = HAL_I2C_STATE_READY;
 8002baa:	0023      	movs	r3, r4
 8002bac:	2220      	movs	r2, #32
 8002bae:	3341      	adds	r3, #65	; 0x41
 8002bb0:	701a      	strb	r2, [r3, #0]
        hi2c->Mode = HAL_I2C_MODE_NONE;
 8002bb2:	0022      	movs	r2, r4
 8002bb4:	2300      	movs	r3, #0
        return HAL_TIMEOUT;
 8002bb6:	2003      	movs	r0, #3
        hi2c->Mode = HAL_I2C_MODE_NONE;
 8002bb8:	3242      	adds	r2, #66	; 0x42
        __HAL_UNLOCK(hi2c);
 8002bba:	3440      	adds	r4, #64	; 0x40
        hi2c->Mode = HAL_I2C_MODE_NONE;
 8002bbc:	7013      	strb	r3, [r2, #0]
        __HAL_UNLOCK(hi2c);
 8002bbe:	7023      	strb	r3, [r4, #0]
}
 8002bc0:	bdf8      	pop	{r3, r4, r5, r6, r7, pc}
      if ((Timeout == 0U) || ((HAL_GetTick() - Tickstart) > Timeout))
 8002bc2:	f7ff fe95 	bl	80028f0 <HAL_GetTick>
 8002bc6:	9b06      	ldr	r3, [sp, #24]
 8002bc8:	1ac0      	subs	r0, r0, r3
 8002bca:	4285      	cmp	r5, r0
 8002bcc:	d2df      	bcs.n	8002b8e <I2C_WaitOnFlagUntilTimeout+0xa>
 8002bce:	e7ec      	b.n	8002baa <I2C_WaitOnFlagUntilTimeout+0x26>

08002bd0 <I2C_IsAcknowledgeFailed>:
{
 8002bd0:	b5f8      	push	{r3, r4, r5, r6, r7, lr}
  if (__HAL_I2C_GET_FLAG(hi2c, I2C_FLAG_AF) == SET)
 8002bd2:	6803      	ldr	r3, [r0, #0]
{
 8002bd4:	0004      	movs	r4, r0
  if (__HAL_I2C_GET_FLAG(hi2c, I2C_FLAG_AF) == SET)
 8002bd6:	6998      	ldr	r0, [r3, #24]
 8002bd8:	2310      	movs	r3, #16
{
 8002bda:	000e      	movs	r6, r1
 8002bdc:	0017      	movs	r7, r2
  if (__HAL_I2C_GET_FLAG(hi2c, I2C_FLAG_AF) == SET)
 8002bde:	4018      	ands	r0, r3
    while (__HAL_I2C_GET_FLAG(hi2c, I2C_FLAG_STOPF) == RESET)
 8002be0:	2520      	movs	r5, #32
  if (__HAL_I2C_GET_FLAG(hi2c, I2C_FLAG_AF) == SET)
 8002be2:	2800      	cmp	r0, #0
 8002be4:	d115      	bne.n	8002c12 <I2C_IsAcknowledgeFailed+0x42>
}
 8002be6:	bdf8      	pop	{r3, r4, r5, r6, r7, pc}
      if (Timeout != HAL_MAX_DELAY)
 8002be8:	1c72      	adds	r2, r6, #1
 8002bea:	d013      	beq.n	8002c14 <I2C_IsAcknowledgeFailed+0x44>
        if ((Timeout == 0U) || ((HAL_GetTick() - Tickstart) > Timeout))
 8002bec:	2e00      	cmp	r6, #0
 8002bee:	d10b      	bne.n	8002c08 <I2C_IsAcknowledgeFailed+0x38>
          hi2c->State = HAL_I2C_STATE_READY;
 8002bf0:	0023      	movs	r3, r4
 8002bf2:	2220      	movs	r2, #32
 8002bf4:	3341      	adds	r3, #65	; 0x41
 8002bf6:	701a      	strb	r2, [r3, #0]
          hi2c->Mode = HAL_I2C_MODE_NONE;
 8002bf8:	0022      	movs	r2, r4
 8002bfa:	2300      	movs	r3, #0
 8002bfc:	3242      	adds	r2, #66	; 0x42
          __HAL_UNLOCK(hi2c);
 8002bfe:	3440      	adds	r4, #64	; 0x40
          hi2c->Mode = HAL_I2C_MODE_NONE;
 8002c00:	7013      	strb	r3, [r2, #0]
          return HAL_TIMEOUT;
 8002c02:	2003      	movs	r0, #3
          __HAL_UNLOCK(hi2c);
 8002c04:	7023      	strb	r3, [r4, #0]
 8002c06:	e7ee      	b.n	8002be6 <I2C_IsAcknowledgeFailed+0x16>
        if ((Timeout == 0U) || ((HAL_GetTick() - Tickstart) > Timeout))
 8002c08:	f7ff fe72 	bl	80028f0 <HAL_GetTick>
 8002c0c:	1bc0      	subs	r0, r0, r7
 8002c0e:	4286      	cmp	r6, r0
 8002c10:	d3ee      	bcc.n	8002bf0 <I2C_IsAcknowledgeFailed+0x20>
    while (__HAL_I2C_GET_FLAG(hi2c, I2C_FLAG_STOPF) == RESET)
 8002c12:	6823      	ldr	r3, [r4, #0]
 8002c14:	699a      	ldr	r2, [r3, #24]
 8002c16:	422a      	tst	r2, r5
 8002c18:	d0e6      	beq.n	8002be8 <I2C_IsAcknowledgeFailed+0x18>
    __HAL_I2C_CLEAR_FLAG(hi2c, I2C_FLAG_AF);
 8002c1a:	2210      	movs	r2, #16
    I2C_Flush_TXDR(hi2c);
 8002c1c:	0020      	movs	r0, r4
    __HAL_I2C_CLEAR_FLAG(hi2c, I2C_FLAG_AF);
 8002c1e:	61da      	str	r2, [r3, #28]
    __HAL_I2C_CLEAR_FLAG(hi2c, I2C_FLAG_STOPF);
 8002c20:	61dd      	str	r5, [r3, #28]
    I2C_Flush_TXDR(hi2c);
 8002c22:	f7ff ff8f 	bl	8002b44 <I2C_Flush_TXDR>
    I2C_RESET_CR2(hi2c);
 8002c26:	6822      	ldr	r2, [r4, #0]
 8002c28:	4908      	ldr	r1, [pc, #32]	; (8002c4c <I2C_IsAcknowledgeFailed+0x7c>)
 8002c2a:	6853      	ldr	r3, [r2, #4]
    return HAL_ERROR;
 8002c2c:	2001      	movs	r0, #1
    I2C_RESET_CR2(hi2c);
 8002c2e:	400b      	ands	r3, r1
 8002c30:	6053      	str	r3, [r2, #4]
    hi2c->ErrorCode = HAL_I2C_ERROR_AF;
 8002c32:	2304      	movs	r3, #4
 8002c34:	6463      	str	r3, [r4, #68]	; 0x44
    hi2c->State = HAL_I2C_STATE_READY;
 8002c36:	0023      	movs	r3, r4
    hi2c->Mode = HAL_I2C_MODE_NONE;
 8002c38:	0022      	movs	r2, r4
    hi2c->State = HAL_I2C_STATE_READY;
 8002c3a:	3341      	adds	r3, #65	; 0x41
 8002c3c:	701d      	strb	r5, [r3, #0]
    hi2c->Mode = HAL_I2C_MODE_NONE;
 8002c3e:	2300      	movs	r3, #0
 8002c40:	3242      	adds	r2, #66	; 0x42
    __HAL_UNLOCK(hi2c);
 8002c42:	3440      	adds	r4, #64	; 0x40
    hi2c->Mode = HAL_I2C_MODE_NONE;
 8002c44:	7013      	strb	r3, [r2, #0]
    __HAL_UNLOCK(hi2c);
 8002c46:	7023      	strb	r3, [r4, #0]
 8002c48:	e7cd      	b.n	8002be6 <I2C_IsAcknowledgeFailed+0x16>
 8002c4a:	46c0      	nop			; (mov r8, r8)
 8002c4c:	fe00e800 	.word	0xfe00e800

08002c50 <I2C_WaitOnTXISFlagUntilTimeout>:
{
 8002c50:	b5f8      	push	{r3, r4, r5, r6, r7, lr}
 8002c52:	0004      	movs	r4, r0
 8002c54:	000d      	movs	r5, r1
 8002c56:	0016      	movs	r6, r2
  while (__HAL_I2C_GET_FLAG(hi2c, I2C_FLAG_TXIS) == RESET)
 8002c58:	2702      	movs	r7, #2
 8002c5a:	6823      	ldr	r3, [r4, #0]
 8002c5c:	699b      	ldr	r3, [r3, #24]
 8002c5e:	423b      	tst	r3, r7
 8002c60:	d001      	beq.n	8002c66 <I2C_WaitOnTXISFlagUntilTimeout+0x16>
  return HAL_OK;
 8002c62:	2000      	movs	r0, #0
 8002c64:	e018      	b.n	8002c98 <I2C_WaitOnTXISFlagUntilTimeout+0x48>
    if (I2C_IsAcknowledgeFailed(hi2c, Timeout, Tickstart) != HAL_OK)
 8002c66:	0032      	movs	r2, r6
 8002c68:	0029      	movs	r1, r5
 8002c6a:	0020      	movs	r0, r4
 8002c6c:	f7ff ffb0 	bl	8002bd0 <I2C_IsAcknowledgeFailed>
 8002c70:	2800      	cmp	r0, #0
 8002c72:	d118      	bne.n	8002ca6 <I2C_WaitOnTXISFlagUntilTimeout+0x56>
    if (Timeout != HAL_MAX_DELAY)
 8002c74:	1c6b      	adds	r3, r5, #1
 8002c76:	d0f0      	beq.n	8002c5a <I2C_WaitOnTXISFlagUntilTimeout+0xa>
      if ((Timeout == 0U) || ((HAL_GetTick() - Tickstart) > Timeout))
 8002c78:	2d00      	cmp	r5, #0
 8002c7a:	d10e      	bne.n	8002c9a <I2C_WaitOnTXISFlagUntilTimeout+0x4a>
      hi2c->ErrorCode |= HAL_I2C_ERROR_TIMEOUT;
 8002c7c:	2220      	movs	r2, #32
 8002c7e:	6c63      	ldr	r3, [r4, #68]	; 0x44
      __HAL_UNLOCK(hi2c);
 8002c80:	2003      	movs	r0, #3
      hi2c->ErrorCode |= HAL_I2C_ERROR_TIMEOUT;
 8002c82:	4313      	orrs	r3, r2
 8002c84:	6463      	str	r3, [r4, #68]	; 0x44
      hi2c->State = HAL_I2C_STATE_READY;
 8002c86:	0023      	movs	r3, r4
 8002c88:	3341      	adds	r3, #65	; 0x41
 8002c8a:	701a      	strb	r2, [r3, #0]
      hi2c->Mode = HAL_I2C_MODE_NONE;
 8002c8c:	0022      	movs	r2, r4
 8002c8e:	2300      	movs	r3, #0
 8002c90:	3242      	adds	r2, #66	; 0x42
      __HAL_UNLOCK(hi2c);
 8002c92:	3440      	adds	r4, #64	; 0x40
      hi2c->Mode = HAL_I2C_MODE_NONE;
 8002c94:	7013      	strb	r3, [r2, #0]
      __HAL_UNLOCK(hi2c);
 8002c96:	7023      	strb	r3, [r4, #0]
}
 8002c98:	bdf8      	pop	{r3, r4, r5, r6, r7, pc}
      if ((Timeout == 0U) || ((HAL_GetTick() - Tickstart) > Timeout))
 8002c9a:	f7ff fe29 	bl	80028f0 <HAL_GetTick>
 8002c9e:	1b80      	subs	r0, r0, r6
 8002ca0:	4285      	cmp	r5, r0
 8002ca2:	d2da      	bcs.n	8002c5a <I2C_WaitOnTXISFlagUntilTimeout+0xa>
 8002ca4:	e7ea      	b.n	8002c7c <I2C_WaitOnTXISFlagUntilTimeout+0x2c>
      return HAL_ERROR;
 8002ca6:	2001      	movs	r0, #1
 8002ca8:	e7f6      	b.n	8002c98 <I2C_WaitOnTXISFlagUntilTimeout+0x48>
	...

08002cac <I2C_WaitOnRXNEFlagUntilTimeout>:
{
 8002cac:	b5f8      	push	{r3, r4, r5, r6, r7, lr}
 8002cae:	0004      	movs	r4, r0
 8002cb0:	000d      	movs	r5, r1
 8002cb2:	0017      	movs	r7, r2
    if (__HAL_I2C_GET_FLAG(hi2c, I2C_FLAG_STOPF) == SET)
 8002cb4:	2620      	movs	r6, #32
  while (__HAL_I2C_GET_FLAG(hi2c, I2C_FLAG_RXNE) == RESET)
 8002cb6:	2204      	movs	r2, #4
 8002cb8:	6823      	ldr	r3, [r4, #0]
 8002cba:	699b      	ldr	r3, [r3, #24]
 8002cbc:	4213      	tst	r3, r2
 8002cbe:	d001      	beq.n	8002cc4 <I2C_WaitOnRXNEFlagUntilTimeout+0x18>
  return HAL_OK;
 8002cc0:	2000      	movs	r0, #0
 8002cc2:	e025      	b.n	8002d10 <I2C_WaitOnRXNEFlagUntilTimeout+0x64>
    if (I2C_IsAcknowledgeFailed(hi2c, Timeout, Tickstart) != HAL_OK)
 8002cc4:	003a      	movs	r2, r7
 8002cc6:	0029      	movs	r1, r5
 8002cc8:	0020      	movs	r0, r4
 8002cca:	f7ff ff81 	bl	8002bd0 <I2C_IsAcknowledgeFailed>
 8002cce:	2800      	cmp	r0, #0
 8002cd0:	d10f      	bne.n	8002cf2 <I2C_WaitOnRXNEFlagUntilTimeout+0x46>
    if (__HAL_I2C_GET_FLAG(hi2c, I2C_FLAG_STOPF) == SET)
 8002cd2:	6823      	ldr	r3, [r4, #0]
 8002cd4:	699a      	ldr	r2, [r3, #24]
 8002cd6:	4232      	tst	r2, r6
 8002cd8:	d00d      	beq.n	8002cf6 <I2C_WaitOnRXNEFlagUntilTimeout+0x4a>
      __HAL_I2C_CLEAR_FLAG(hi2c, I2C_FLAG_STOPF);
 8002cda:	61de      	str	r6, [r3, #28]
      I2C_RESET_CR2(hi2c);
 8002cdc:	685a      	ldr	r2, [r3, #4]
 8002cde:	4910      	ldr	r1, [pc, #64]	; (8002d20 <I2C_WaitOnRXNEFlagUntilTimeout+0x74>)
 8002ce0:	400a      	ands	r2, r1
 8002ce2:	605a      	str	r2, [r3, #4]
      hi2c->State = HAL_I2C_STATE_READY;
 8002ce4:	0023      	movs	r3, r4
      hi2c->ErrorCode = HAL_I2C_ERROR_NONE;
 8002ce6:	6460      	str	r0, [r4, #68]	; 0x44
      hi2c->State = HAL_I2C_STATE_READY;
 8002ce8:	3341      	adds	r3, #65	; 0x41
      __HAL_UNLOCK(hi2c);
 8002cea:	3440      	adds	r4, #64	; 0x40
      hi2c->State = HAL_I2C_STATE_READY;
 8002cec:	701e      	strb	r6, [r3, #0]
      hi2c->Mode = HAL_I2C_MODE_NONE;
 8002cee:	7058      	strb	r0, [r3, #1]
      __HAL_UNLOCK(hi2c);
 8002cf0:	7020      	strb	r0, [r4, #0]
      return HAL_ERROR;
 8002cf2:	2001      	movs	r0, #1
 8002cf4:	e00c      	b.n	8002d10 <I2C_WaitOnRXNEFlagUntilTimeout+0x64>
    if ((Timeout == 0U) || ((HAL_GetTick() - Tickstart) > Timeout))
 8002cf6:	2d00      	cmp	r5, #0
 8002cf8:	d10b      	bne.n	8002d12 <I2C_WaitOnRXNEFlagUntilTimeout+0x66>
      hi2c->ErrorCode |= HAL_I2C_ERROR_TIMEOUT;
 8002cfa:	2220      	movs	r2, #32
 8002cfc:	6c63      	ldr	r3, [r4, #68]	; 0x44
      __HAL_UNLOCK(hi2c);
 8002cfe:	2003      	movs	r0, #3
      hi2c->ErrorCode |= HAL_I2C_ERROR_TIMEOUT;
 8002d00:	4313      	orrs	r3, r2
 8002d02:	6463      	str	r3, [r4, #68]	; 0x44
      hi2c->State = HAL_I2C_STATE_READY;
 8002d04:	0023      	movs	r3, r4
 8002d06:	3341      	adds	r3, #65	; 0x41
 8002d08:	701a      	strb	r2, [r3, #0]
      __HAL_UNLOCK(hi2c);
 8002d0a:	2300      	movs	r3, #0
 8002d0c:	3440      	adds	r4, #64	; 0x40
 8002d0e:	7023      	strb	r3, [r4, #0]
}
 8002d10:	bdf8      	pop	{r3, r4, r5, r6, r7, pc}
    if ((Timeout == 0U) || ((HAL_GetTick() - Tickstart) > Timeout))
 8002d12:	f7ff fded 	bl	80028f0 <HAL_GetTick>
 8002d16:	1bc0      	subs	r0, r0, r7
 8002d18:	4285      	cmp	r5, r0
 8002d1a:	d2cc      	bcs.n	8002cb6 <I2C_WaitOnRXNEFlagUntilTimeout+0xa>
 8002d1c:	e7ed      	b.n	8002cfa <I2C_WaitOnRXNEFlagUntilTimeout+0x4e>
 8002d1e:	46c0      	nop			; (mov r8, r8)
 8002d20:	fe00e800 	.word	0xfe00e800

08002d24 <I2C_WaitOnSTOPFlagUntilTimeout>:
{
 8002d24:	b5f8      	push	{r3, r4, r5, r6, r7, lr}
 8002d26:	0004      	movs	r4, r0
 8002d28:	000d      	movs	r5, r1
 8002d2a:	0016      	movs	r6, r2
  while (__HAL_I2C_GET_FLAG(hi2c, I2C_FLAG_STOPF) == RESET)
 8002d2c:	2720      	movs	r7, #32
 8002d2e:	6823      	ldr	r3, [r4, #0]
 8002d30:	699b      	ldr	r3, [r3, #24]
 8002d32:	423b      	tst	r3, r7
 8002d34:	d001      	beq.n	8002d3a <I2C_WaitOnSTOPFlagUntilTimeout+0x16>
  return HAL_OK;
 8002d36:	2000      	movs	r0, #0
 8002d38:	e016      	b.n	8002d68 <I2C_WaitOnSTOPFlagUntilTimeout+0x44>
    if (I2C_IsAcknowledgeFailed(hi2c, Timeout, Tickstart) != HAL_OK)
 8002d3a:	0032      	movs	r2, r6
 8002d3c:	0029      	movs	r1, r5
 8002d3e:	0020      	movs	r0, r4
 8002d40:	f7ff ff46 	bl	8002bd0 <I2C_IsAcknowledgeFailed>
 8002d44:	2800      	cmp	r0, #0
 8002d46:	d116      	bne.n	8002d76 <I2C_WaitOnSTOPFlagUntilTimeout+0x52>
    if ((Timeout == 0U) || ((HAL_GetTick() - Tickstart) > Timeout))
 8002d48:	2d00      	cmp	r5, #0
 8002d4a:	d10e      	bne.n	8002d6a <I2C_WaitOnSTOPFlagUntilTimeout+0x46>
      hi2c->ErrorCode |= HAL_I2C_ERROR_TIMEOUT;
 8002d4c:	2220      	movs	r2, #32
 8002d4e:	6c63      	ldr	r3, [r4, #68]	; 0x44
      __HAL_UNLOCK(hi2c);
 8002d50:	2003      	movs	r0, #3
      hi2c->ErrorCode |= HAL_I2C_ERROR_TIMEOUT;
 8002d52:	4313      	orrs	r3, r2
 8002d54:	6463      	str	r3, [r4, #68]	; 0x44
      hi2c->State = HAL_I2C_STATE_READY;
 8002d56:	0023      	movs	r3, r4
 8002d58:	3341      	adds	r3, #65	; 0x41
 8002d5a:	701a      	strb	r2, [r3, #0]
      hi2c->Mode = HAL_I2C_MODE_NONE;
 8002d5c:	0022      	movs	r2, r4
 8002d5e:	2300      	movs	r3, #0
 8002d60:	3242      	adds	r2, #66	; 0x42
      __HAL_UNLOCK(hi2c);
 8002d62:	3440      	adds	r4, #64	; 0x40
      hi2c->Mode = HAL_I2C_MODE_NONE;
 8002d64:	7013      	strb	r3, [r2, #0]
      __HAL_UNLOCK(hi2c);
 8002d66:	7023      	strb	r3, [r4, #0]
}
 8002d68:	bdf8      	pop	{r3, r4, r5, r6, r7, pc}
    if ((Timeout == 0U) || ((HAL_GetTick() - Tickstart) > Timeout))
 8002d6a:	f7ff fdc1 	bl	80028f0 <HAL_GetTick>
 8002d6e:	1b80      	subs	r0, r0, r6
 8002d70:	4285      	cmp	r5, r0
 8002d72:	d2dc      	bcs.n	8002d2e <I2C_WaitOnSTOPFlagUntilTimeout+0xa>
 8002d74:	e7ea      	b.n	8002d4c <I2C_WaitOnSTOPFlagUntilTimeout+0x28>
      return HAL_ERROR;
 8002d76:	2001      	movs	r0, #1
 8002d78:	e7f6      	b.n	8002d68 <I2C_WaitOnSTOPFlagUntilTimeout+0x44>
	...

08002d7c <HAL_I2C_Init>:
{
 8002d7c:	b570      	push	{r4, r5, r6, lr}
 8002d7e:	0004      	movs	r4, r0
    return HAL_ERROR;
 8002d80:	2001      	movs	r0, #1
  if (hi2c == NULL)
 8002d82:	2c00      	cmp	r4, #0
 8002d84:	d03f      	beq.n	8002e06 <HAL_I2C_Init+0x8a>
  if (hi2c->State == HAL_I2C_STATE_RESET)
 8002d86:	0025      	movs	r5, r4
 8002d88:	3541      	adds	r5, #65	; 0x41
 8002d8a:	782b      	ldrb	r3, [r5, #0]
 8002d8c:	b2db      	uxtb	r3, r3
 8002d8e:	2b00      	cmp	r3, #0
 8002d90:	d105      	bne.n	8002d9e <HAL_I2C_Init+0x22>
    hi2c->Lock = HAL_UNLOCKED;
 8002d92:	0022      	movs	r2, r4
 8002d94:	3240      	adds	r2, #64	; 0x40
 8002d96:	7013      	strb	r3, [r2, #0]
    HAL_I2C_MspInit(hi2c);
 8002d98:	0020      	movs	r0, r4
 8002d9a:	f000 fecb 	bl	8003b34 <HAL_I2C_MspInit>
  hi2c->State = HAL_I2C_STATE_BUSY;
 8002d9e:	2324      	movs	r3, #36	; 0x24
  __HAL_I2C_DISABLE(hi2c);
 8002da0:	2101      	movs	r1, #1
  hi2c->State = HAL_I2C_STATE_BUSY;
 8002da2:	702b      	strb	r3, [r5, #0]
  __HAL_I2C_DISABLE(hi2c);
 8002da4:	6823      	ldr	r3, [r4, #0]
  if (hi2c->Init.AddressingMode == I2C_ADDRESSINGMODE_7BIT)
 8002da6:	68e0      	ldr	r0, [r4, #12]
  __HAL_I2C_DISABLE(hi2c);
 8002da8:	681a      	ldr	r2, [r3, #0]
 8002daa:	68a6      	ldr	r6, [r4, #8]
 8002dac:	438a      	bics	r2, r1
 8002dae:	601a      	str	r2, [r3, #0]
  hi2c->Instance->TIMINGR = hi2c->Init.Timing & TIMING_CLEAR_MASK;
 8002db0:	6861      	ldr	r1, [r4, #4]
 8002db2:	4a1a      	ldr	r2, [pc, #104]	; (8002e1c <HAL_I2C_Init+0xa0>)
 8002db4:	400a      	ands	r2, r1
 8002db6:	611a      	str	r2, [r3, #16]
  hi2c->Instance->OAR1 &= ~I2C_OAR1_OA1EN;
 8002db8:	6899      	ldr	r1, [r3, #8]
 8002dba:	4a19      	ldr	r2, [pc, #100]	; (8002e20 <HAL_I2C_Init+0xa4>)
 8002dbc:	4011      	ands	r1, r2
 8002dbe:	6099      	str	r1, [r3, #8]
  if (hi2c->Init.AddressingMode == I2C_ADDRESSINGMODE_7BIT)
 8002dc0:	2801      	cmp	r0, #1
 8002dc2:	d121      	bne.n	8002e08 <HAL_I2C_Init+0x8c>
    hi2c->Instance->OAR1 = (I2C_OAR1_OA1EN | hi2c->Init.OwnAddress1);
 8002dc4:	2180      	movs	r1, #128	; 0x80
 8002dc6:	0209      	lsls	r1, r1, #8
 8002dc8:	4331      	orrs	r1, r6
 8002dca:	6099      	str	r1, [r3, #8]
  hi2c->Instance->CR2 |= (I2C_CR2_AUTOEND | I2C_CR2_NACK);
 8002dcc:	6858      	ldr	r0, [r3, #4]
 8002dce:	4915      	ldr	r1, [pc, #84]	; (8002e24 <HAL_I2C_Init+0xa8>)
 8002dd0:	4301      	orrs	r1, r0
 8002dd2:	6059      	str	r1, [r3, #4]
  hi2c->Instance->OAR2 &= ~I2C_DUALADDRESS_ENABLE;
 8002dd4:	68d9      	ldr	r1, [r3, #12]
  hi2c->ErrorCode = HAL_I2C_ERROR_NONE;
 8002dd6:	2000      	movs	r0, #0
  hi2c->Instance->OAR2 &= ~I2C_DUALADDRESS_ENABLE;
 8002dd8:	400a      	ands	r2, r1
 8002dda:	60da      	str	r2, [r3, #12]
  hi2c->Instance->OAR2 = (hi2c->Init.DualAddressMode | hi2c->Init.OwnAddress2 | (hi2c->Init.OwnAddress2Masks << 8));
 8002ddc:	6961      	ldr	r1, [r4, #20]
 8002dde:	6922      	ldr	r2, [r4, #16]
 8002de0:	430a      	orrs	r2, r1
 8002de2:	69a1      	ldr	r1, [r4, #24]
 8002de4:	0209      	lsls	r1, r1, #8
 8002de6:	430a      	orrs	r2, r1
 8002de8:	60da      	str	r2, [r3, #12]
  hi2c->Instance->CR1 = (hi2c->Init.GeneralCallMode | hi2c->Init.NoStretchMode);
 8002dea:	6a21      	ldr	r1, [r4, #32]
 8002dec:	69e2      	ldr	r2, [r4, #28]
 8002dee:	430a      	orrs	r2, r1
 8002df0:	601a      	str	r2, [r3, #0]
  __HAL_I2C_ENABLE(hi2c);
 8002df2:	2201      	movs	r2, #1
 8002df4:	6819      	ldr	r1, [r3, #0]
 8002df6:	430a      	orrs	r2, r1
 8002df8:	601a      	str	r2, [r3, #0]
  hi2c->State = HAL_I2C_STATE_READY;
 8002dfa:	2320      	movs	r3, #32
  hi2c->ErrorCode = HAL_I2C_ERROR_NONE;
 8002dfc:	6460      	str	r0, [r4, #68]	; 0x44
  hi2c->State = HAL_I2C_STATE_READY;
 8002dfe:	702b      	strb	r3, [r5, #0]
  hi2c->PreviousState = I2C_STATE_NONE;
 8002e00:	6320      	str	r0, [r4, #48]	; 0x30
  hi2c->Mode = HAL_I2C_MODE_NONE;
 8002e02:	3442      	adds	r4, #66	; 0x42
 8002e04:	7020      	strb	r0, [r4, #0]
}
 8002e06:	bd70      	pop	{r4, r5, r6, pc}
    hi2c->Instance->OAR1 = (I2C_OAR1_OA1EN | I2C_OAR1_OA1MODE | hi2c->Init.OwnAddress1);
 8002e08:	2184      	movs	r1, #132	; 0x84
 8002e0a:	0209      	lsls	r1, r1, #8
 8002e0c:	4331      	orrs	r1, r6
 8002e0e:	6099      	str	r1, [r3, #8]
  if (hi2c->Init.AddressingMode == I2C_ADDRESSINGMODE_10BIT)
 8002e10:	2802      	cmp	r0, #2
 8002e12:	d1db      	bne.n	8002dcc <HAL_I2C_Init+0x50>
    hi2c->Instance->CR2 = (I2C_CR2_ADD10);
 8002e14:	2180      	movs	r1, #128	; 0x80
 8002e16:	0109      	lsls	r1, r1, #4
 8002e18:	6059      	str	r1, [r3, #4]
 8002e1a:	e7d7      	b.n	8002dcc <HAL_I2C_Init+0x50>
 8002e1c:	f0ffffff 	.word	0xf0ffffff
 8002e20:	ffff7fff 	.word	0xffff7fff
 8002e24:	02008000 	.word	0x02008000

08002e28 <HAL_I2C_Master_Transmit>:
{
 8002e28:	b5f0      	push	{r4, r5, r6, r7, lr}
  if (hi2c->State == HAL_I2C_STATE_READY)
 8002e2a:	0005      	movs	r5, r0
{
 8002e2c:	b087      	sub	sp, #28
 8002e2e:	9103      	str	r1, [sp, #12]
 8002e30:	9204      	str	r2, [sp, #16]
 8002e32:	9305      	str	r3, [sp, #20]
  if (hi2c->State == HAL_I2C_STATE_READY)
 8002e34:	3541      	adds	r5, #65	; 0x41
 8002e36:	782b      	ldrb	r3, [r5, #0]
{
 8002e38:	0004      	movs	r4, r0
    return HAL_BUSY;
 8002e3a:	2002      	movs	r0, #2
  if (hi2c->State == HAL_I2C_STATE_READY)
 8002e3c:	2b20      	cmp	r3, #32
 8002e3e:	d157      	bne.n	8002ef0 <HAL_I2C_Master_Transmit+0xc8>
    __HAL_LOCK(hi2c);
 8002e40:	0023      	movs	r3, r4
 8002e42:	3340      	adds	r3, #64	; 0x40
 8002e44:	781a      	ldrb	r2, [r3, #0]
 8002e46:	2a01      	cmp	r2, #1
 8002e48:	d052      	beq.n	8002ef0 <HAL_I2C_Master_Transmit+0xc8>
 8002e4a:	2601      	movs	r6, #1
 8002e4c:	701e      	strb	r6, [r3, #0]
    tickstart = HAL_GetTick();
 8002e4e:	f7ff fd4f 	bl	80028f0 <HAL_GetTick>
    if (I2C_WaitOnFlagUntilTimeout(hi2c, I2C_FLAG_BUSY, SET, I2C_TIMEOUT_BUSY, tickstart) != HAL_OK)
 8002e52:	2180      	movs	r1, #128	; 0x80
    tickstart = HAL_GetTick();
 8002e54:	0007      	movs	r7, r0
    if (I2C_WaitOnFlagUntilTimeout(hi2c, I2C_FLAG_BUSY, SET, I2C_TIMEOUT_BUSY, tickstart) != HAL_OK)
 8002e56:	9000      	str	r0, [sp, #0]
 8002e58:	2319      	movs	r3, #25
 8002e5a:	0032      	movs	r2, r6
 8002e5c:	0209      	lsls	r1, r1, #8
 8002e5e:	0020      	movs	r0, r4
 8002e60:	f7ff fe90 	bl	8002b84 <I2C_WaitOnFlagUntilTimeout>
 8002e64:	2800      	cmp	r0, #0
 8002e66:	d142      	bne.n	8002eee <HAL_I2C_Master_Transmit+0xc6>
    hi2c->State     = HAL_I2C_STATE_BUSY_TX;
 8002e68:	2321      	movs	r3, #33	; 0x21
 8002e6a:	702b      	strb	r3, [r5, #0]
    hi2c->Mode      = HAL_I2C_MODE_MASTER;
 8002e6c:	3b11      	subs	r3, #17
 8002e6e:	19ad      	adds	r5, r5, r6
 8002e70:	702b      	strb	r3, [r5, #0]
    hi2c->pBuffPtr  = pData;
 8002e72:	9b04      	ldr	r3, [sp, #16]
    hi2c->ErrorCode = HAL_I2C_ERROR_NONE;
 8002e74:	6460      	str	r0, [r4, #68]	; 0x44
    hi2c->pBuffPtr  = pData;
 8002e76:	6263      	str	r3, [r4, #36]	; 0x24
    hi2c->XferCount = Size;
 8002e78:	466b      	mov	r3, sp
 8002e7a:	8a9b      	ldrh	r3, [r3, #20]
    hi2c->XferISR   = NULL;
 8002e7c:	6360      	str	r0, [r4, #52]	; 0x34
    hi2c->XferCount = Size;
 8002e7e:	8563      	strh	r3, [r4, #42]	; 0x2a
 8002e80:	2380      	movs	r3, #128	; 0x80
    if (hi2c->XferCount > MAX_NBYTE_SIZE)
 8002e82:	8d62      	ldrh	r2, [r4, #42]	; 0x2a
 8002e84:	019b      	lsls	r3, r3, #6
 8002e86:	2aff      	cmp	r2, #255	; 0xff
 8002e88:	d921      	bls.n	8002ece <HAL_I2C_Master_Transmit+0xa6>
      hi2c->XferSize = MAX_NBYTE_SIZE;
 8002e8a:	22ff      	movs	r2, #255	; 0xff
 8002e8c:	8522      	strh	r2, [r4, #40]	; 0x28
      I2C_TransferConfig(hi2c, DevAddress, hi2c->XferSize, I2C_RELOAD_MODE, I2C_GENERATE_START_WRITE);
 8002e8e:	9300      	str	r3, [sp, #0]
 8002e90:	2380      	movs	r3, #128	; 0x80
 8002e92:	045b      	lsls	r3, r3, #17
 8002e94:	9903      	ldr	r1, [sp, #12]
 8002e96:	0020      	movs	r0, r4
 8002e98:	f7ff fe62 	bl	8002b60 <I2C_TransferConfig>
          hi2c->XferSize = MAX_NBYTE_SIZE;
 8002e9c:	26ff      	movs	r6, #255	; 0xff
    while (hi2c->XferCount > 0U)
 8002e9e:	8d63      	ldrh	r3, [r4, #42]	; 0x2a
      if (I2C_WaitOnTXISFlagUntilTimeout(hi2c, Timeout, tickstart) != HAL_OK)
 8002ea0:	003a      	movs	r2, r7
 8002ea2:	990c      	ldr	r1, [sp, #48]	; 0x30
 8002ea4:	0020      	movs	r0, r4
    while (hi2c->XferCount > 0U)
 8002ea6:	2b00      	cmp	r3, #0
 8002ea8:	d119      	bne.n	8002ede <HAL_I2C_Master_Transmit+0xb6>
    if (I2C_WaitOnSTOPFlagUntilTimeout(hi2c, Timeout, tickstart) != HAL_OK)
 8002eaa:	f7ff ff3b 	bl	8002d24 <I2C_WaitOnSTOPFlagUntilTimeout>
 8002eae:	2800      	cmp	r0, #0
 8002eb0:	d119      	bne.n	8002ee6 <HAL_I2C_Master_Transmit+0xbe>
    __HAL_I2C_CLEAR_FLAG(hi2c, I2C_FLAG_STOPF);
 8002eb2:	2120      	movs	r1, #32
 8002eb4:	6823      	ldr	r3, [r4, #0]
    I2C_RESET_CR2(hi2c);
 8002eb6:	4e27      	ldr	r6, [pc, #156]	; (8002f54 <HAL_I2C_Master_Transmit+0x12c>)
    __HAL_I2C_CLEAR_FLAG(hi2c, I2C_FLAG_STOPF);
 8002eb8:	61d9      	str	r1, [r3, #28]
    I2C_RESET_CR2(hi2c);
 8002eba:	685a      	ldr	r2, [r3, #4]
 8002ebc:	4032      	ands	r2, r6
 8002ebe:	605a      	str	r2, [r3, #4]
    hi2c->State = HAL_I2C_STATE_READY;
 8002ec0:	0023      	movs	r3, r4
    __HAL_UNLOCK(hi2c);
 8002ec2:	3440      	adds	r4, #64	; 0x40
    hi2c->State = HAL_I2C_STATE_READY;
 8002ec4:	3341      	adds	r3, #65	; 0x41
 8002ec6:	7019      	strb	r1, [r3, #0]
    hi2c->Mode  = HAL_I2C_MODE_NONE;
 8002ec8:	7028      	strb	r0, [r5, #0]
    __HAL_UNLOCK(hi2c);
 8002eca:	7020      	strb	r0, [r4, #0]
    return HAL_OK;
 8002ecc:	e010      	b.n	8002ef0 <HAL_I2C_Master_Transmit+0xc8>
      hi2c->XferSize = hi2c->XferCount;
 8002ece:	8d62      	ldrh	r2, [r4, #42]	; 0x2a
 8002ed0:	b292      	uxth	r2, r2
 8002ed2:	8522      	strh	r2, [r4, #40]	; 0x28
      I2C_TransferConfig(hi2c, DevAddress, hi2c->XferSize, I2C_AUTOEND_MODE, I2C_GENERATE_START_WRITE);
 8002ed4:	9300      	str	r3, [sp, #0]
 8002ed6:	2380      	movs	r3, #128	; 0x80
 8002ed8:	b2d2      	uxtb	r2, r2
 8002eda:	049b      	lsls	r3, r3, #18
 8002edc:	e7da      	b.n	8002e94 <HAL_I2C_Master_Transmit+0x6c>
      if (I2C_WaitOnTXISFlagUntilTimeout(hi2c, Timeout, tickstart) != HAL_OK)
 8002ede:	f7ff feb7 	bl	8002c50 <I2C_WaitOnTXISFlagUntilTimeout>
 8002ee2:	2800      	cmp	r0, #0
 8002ee4:	d006      	beq.n	8002ef4 <HAL_I2C_Master_Transmit+0xcc>
        if (hi2c->ErrorCode == HAL_I2C_ERROR_AF)
 8002ee6:	6c63      	ldr	r3, [r4, #68]	; 0x44
          return HAL_ERROR;
 8002ee8:	2001      	movs	r0, #1
        if (hi2c->ErrorCode == HAL_I2C_ERROR_AF)
 8002eea:	2b04      	cmp	r3, #4
 8002eec:	d000      	beq.n	8002ef0 <HAL_I2C_Master_Transmit+0xc8>
          return HAL_TIMEOUT;
 8002eee:	2003      	movs	r0, #3
}
 8002ef0:	b007      	add	sp, #28
 8002ef2:	bdf0      	pop	{r4, r5, r6, r7, pc}
      hi2c->Instance->TXDR = (*hi2c->pBuffPtr++);
 8002ef4:	6a63      	ldr	r3, [r4, #36]	; 0x24
 8002ef6:	6822      	ldr	r2, [r4, #0]
 8002ef8:	1c59      	adds	r1, r3, #1
 8002efa:	6261      	str	r1, [r4, #36]	; 0x24
 8002efc:	781b      	ldrb	r3, [r3, #0]
 8002efe:	6293      	str	r3, [r2, #40]	; 0x28
      hi2c->XferCount--;
 8002f00:	8d63      	ldrh	r3, [r4, #42]	; 0x2a
      hi2c->XferSize--;
 8002f02:	8d22      	ldrh	r2, [r4, #40]	; 0x28
      hi2c->XferCount--;
 8002f04:	3b01      	subs	r3, #1
      hi2c->XferSize--;
 8002f06:	3a01      	subs	r2, #1
      hi2c->XferCount--;
 8002f08:	b29b      	uxth	r3, r3
      hi2c->XferSize--;
 8002f0a:	b292      	uxth	r2, r2
      hi2c->XferCount--;
 8002f0c:	8563      	strh	r3, [r4, #42]	; 0x2a
      hi2c->XferSize--;
 8002f0e:	8522      	strh	r2, [r4, #40]	; 0x28
      if ((hi2c->XferSize == 0U) && (hi2c->XferCount != 0U))
 8002f10:	2a00      	cmp	r2, #0
 8002f12:	d1c4      	bne.n	8002e9e <HAL_I2C_Master_Transmit+0x76>
 8002f14:	8d63      	ldrh	r3, [r4, #42]	; 0x2a
 8002f16:	2b00      	cmp	r3, #0
 8002f18:	d0c1      	beq.n	8002e9e <HAL_I2C_Master_Transmit+0x76>
        if (I2C_WaitOnFlagUntilTimeout(hi2c, I2C_FLAG_TCR, RESET, Timeout, tickstart) != HAL_OK)
 8002f1a:	9700      	str	r7, [sp, #0]
 8002f1c:	9b0c      	ldr	r3, [sp, #48]	; 0x30
 8002f1e:	2180      	movs	r1, #128	; 0x80
 8002f20:	0020      	movs	r0, r4
 8002f22:	f7ff fe2f 	bl	8002b84 <I2C_WaitOnFlagUntilTimeout>
 8002f26:	2800      	cmp	r0, #0
 8002f28:	d1e1      	bne.n	8002eee <HAL_I2C_Master_Transmit+0xc6>
        if (hi2c->XferCount > MAX_NBYTE_SIZE)
 8002f2a:	8d63      	ldrh	r3, [r4, #42]	; 0x2a
 8002f2c:	2bff      	cmp	r3, #255	; 0xff
 8002f2e:	d909      	bls.n	8002f44 <HAL_I2C_Master_Transmit+0x11c>
          I2C_TransferConfig(hi2c, DevAddress, hi2c->XferSize, I2C_RELOAD_MODE, I2C_NO_STARTSTOP);
 8002f30:	2380      	movs	r3, #128	; 0x80
 8002f32:	22ff      	movs	r2, #255	; 0xff
          hi2c->XferSize = MAX_NBYTE_SIZE;
 8002f34:	8526      	strh	r6, [r4, #40]	; 0x28
          I2C_TransferConfig(hi2c, DevAddress, hi2c->XferSize, I2C_RELOAD_MODE, I2C_NO_STARTSTOP);
 8002f36:	045b      	lsls	r3, r3, #17
 8002f38:	9000      	str	r0, [sp, #0]
          I2C_TransferConfig(hi2c, DevAddress, hi2c->XferSize, I2C_AUTOEND_MODE, I2C_NO_STARTSTOP);
 8002f3a:	9903      	ldr	r1, [sp, #12]
 8002f3c:	0020      	movs	r0, r4
 8002f3e:	f7ff fe0f 	bl	8002b60 <I2C_TransferConfig>
 8002f42:	e7ac      	b.n	8002e9e <HAL_I2C_Master_Transmit+0x76>
 8002f44:	2380      	movs	r3, #128	; 0x80
          hi2c->XferSize = hi2c->XferCount;
 8002f46:	8d62      	ldrh	r2, [r4, #42]	; 0x2a
          I2C_TransferConfig(hi2c, DevAddress, hi2c->XferSize, I2C_AUTOEND_MODE, I2C_NO_STARTSTOP);
 8002f48:	049b      	lsls	r3, r3, #18
          hi2c->XferSize = hi2c->XferCount;
 8002f4a:	b292      	uxth	r2, r2
 8002f4c:	8522      	strh	r2, [r4, #40]	; 0x28
          I2C_TransferConfig(hi2c, DevAddress, hi2c->XferSize, I2C_AUTOEND_MODE, I2C_NO_STARTSTOP);
 8002f4e:	b2d2      	uxtb	r2, r2
 8002f50:	9000      	str	r0, [sp, #0]
 8002f52:	e7f2      	b.n	8002f3a <HAL_I2C_Master_Transmit+0x112>
 8002f54:	fe00e800 	.word	0xfe00e800

08002f58 <HAL_I2C_Master_Receive>:
{
 8002f58:	b5f0      	push	{r4, r5, r6, r7, lr}
  if (hi2c->State == HAL_I2C_STATE_READY)
 8002f5a:	0005      	movs	r5, r0
{
 8002f5c:	b087      	sub	sp, #28
 8002f5e:	9103      	str	r1, [sp, #12]
 8002f60:	9204      	str	r2, [sp, #16]
 8002f62:	9305      	str	r3, [sp, #20]
  if (hi2c->State == HAL_I2C_STATE_READY)
 8002f64:	3541      	adds	r5, #65	; 0x41
 8002f66:	782b      	ldrb	r3, [r5, #0]
{
 8002f68:	0004      	movs	r4, r0
    return HAL_BUSY;
 8002f6a:	2002      	movs	r0, #2
  if (hi2c->State == HAL_I2C_STATE_READY)
 8002f6c:	2b20      	cmp	r3, #32
 8002f6e:	d157      	bne.n	8003020 <HAL_I2C_Master_Receive+0xc8>
    __HAL_LOCK(hi2c);
 8002f70:	0023      	movs	r3, r4
 8002f72:	3340      	adds	r3, #64	; 0x40
 8002f74:	781a      	ldrb	r2, [r3, #0]
 8002f76:	2a01      	cmp	r2, #1
 8002f78:	d052      	beq.n	8003020 <HAL_I2C_Master_Receive+0xc8>
 8002f7a:	2601      	movs	r6, #1
 8002f7c:	701e      	strb	r6, [r3, #0]
    tickstart = HAL_GetTick();
 8002f7e:	f7ff fcb7 	bl	80028f0 <HAL_GetTick>
    if (I2C_WaitOnFlagUntilTimeout(hi2c, I2C_FLAG_BUSY, SET, I2C_TIMEOUT_BUSY, tickstart) != HAL_OK)
 8002f82:	2180      	movs	r1, #128	; 0x80
    tickstart = HAL_GetTick();
 8002f84:	0007      	movs	r7, r0
    if (I2C_WaitOnFlagUntilTimeout(hi2c, I2C_FLAG_BUSY, SET, I2C_TIMEOUT_BUSY, tickstart) != HAL_OK)
 8002f86:	9000      	str	r0, [sp, #0]
 8002f88:	2319      	movs	r3, #25
 8002f8a:	0032      	movs	r2, r6
 8002f8c:	0209      	lsls	r1, r1, #8
 8002f8e:	0020      	movs	r0, r4
 8002f90:	f7ff fdf8 	bl	8002b84 <I2C_WaitOnFlagUntilTimeout>
 8002f94:	2800      	cmp	r0, #0
 8002f96:	d142      	bne.n	800301e <HAL_I2C_Master_Receive+0xc6>
    hi2c->State     = HAL_I2C_STATE_BUSY_RX;
 8002f98:	2322      	movs	r3, #34	; 0x22
 8002f9a:	702b      	strb	r3, [r5, #0]
    hi2c->Mode      = HAL_I2C_MODE_MASTER;
 8002f9c:	3b12      	subs	r3, #18
 8002f9e:	19ad      	adds	r5, r5, r6
 8002fa0:	702b      	strb	r3, [r5, #0]
    hi2c->pBuffPtr  = pData;
 8002fa2:	9b04      	ldr	r3, [sp, #16]
    hi2c->ErrorCode = HAL_I2C_ERROR_NONE;
 8002fa4:	6460      	str	r0, [r4, #68]	; 0x44
    hi2c->pBuffPtr  = pData;
 8002fa6:	6263      	str	r3, [r4, #36]	; 0x24
    hi2c->XferCount = Size;
 8002fa8:	466b      	mov	r3, sp
 8002faa:	8a9b      	ldrh	r3, [r3, #20]
    hi2c->XferISR   = NULL;
 8002fac:	6360      	str	r0, [r4, #52]	; 0x34
    hi2c->XferCount = Size;
 8002fae:	8563      	strh	r3, [r4, #42]	; 0x2a
 8002fb0:	2390      	movs	r3, #144	; 0x90
    if (hi2c->XferCount > MAX_NBYTE_SIZE)
 8002fb2:	8d62      	ldrh	r2, [r4, #42]	; 0x2a
 8002fb4:	019b      	lsls	r3, r3, #6
 8002fb6:	2aff      	cmp	r2, #255	; 0xff
 8002fb8:	d921      	bls.n	8002ffe <HAL_I2C_Master_Receive+0xa6>
      hi2c->XferSize = MAX_NBYTE_SIZE;
 8002fba:	22ff      	movs	r2, #255	; 0xff
 8002fbc:	8522      	strh	r2, [r4, #40]	; 0x28
      I2C_TransferConfig(hi2c, DevAddress, hi2c->XferSize, I2C_RELOAD_MODE, I2C_GENERATE_START_READ);
 8002fbe:	9300      	str	r3, [sp, #0]
 8002fc0:	2380      	movs	r3, #128	; 0x80
 8002fc2:	045b      	lsls	r3, r3, #17
 8002fc4:	9903      	ldr	r1, [sp, #12]
 8002fc6:	0020      	movs	r0, r4
 8002fc8:	f7ff fdca 	bl	8002b60 <I2C_TransferConfig>
          hi2c->XferSize = MAX_NBYTE_SIZE;
 8002fcc:	26ff      	movs	r6, #255	; 0xff
    while (hi2c->XferCount > 0U)
 8002fce:	8d63      	ldrh	r3, [r4, #42]	; 0x2a
      if (I2C_WaitOnRXNEFlagUntilTimeout(hi2c, Timeout, tickstart) != HAL_OK)
 8002fd0:	003a      	movs	r2, r7
 8002fd2:	990c      	ldr	r1, [sp, #48]	; 0x30
 8002fd4:	0020      	movs	r0, r4
    while (hi2c->XferCount > 0U)
 8002fd6:	2b00      	cmp	r3, #0
 8002fd8:	d119      	bne.n	800300e <HAL_I2C_Master_Receive+0xb6>
    if (I2C_WaitOnSTOPFlagUntilTimeout(hi2c, Timeout, tickstart) != HAL_OK)
 8002fda:	f7ff fea3 	bl	8002d24 <I2C_WaitOnSTOPFlagUntilTimeout>
 8002fde:	2800      	cmp	r0, #0
 8002fe0:	d119      	bne.n	8003016 <HAL_I2C_Master_Receive+0xbe>
    __HAL_I2C_CLEAR_FLAG(hi2c, I2C_FLAG_STOPF);
 8002fe2:	2120      	movs	r1, #32
 8002fe4:	6823      	ldr	r3, [r4, #0]
    I2C_RESET_CR2(hi2c);
 8002fe6:	4e27      	ldr	r6, [pc, #156]	; (8003084 <HAL_I2C_Master_Receive+0x12c>)
    __HAL_I2C_CLEAR_FLAG(hi2c, I2C_FLAG_STOPF);
 8002fe8:	61d9      	str	r1, [r3, #28]
    I2C_RESET_CR2(hi2c);
 8002fea:	685a      	ldr	r2, [r3, #4]
 8002fec:	4032      	ands	r2, r6
 8002fee:	605a      	str	r2, [r3, #4]
    hi2c->State = HAL_I2C_STATE_READY;
 8002ff0:	0023      	movs	r3, r4
    __HAL_UNLOCK(hi2c);
 8002ff2:	3440      	adds	r4, #64	; 0x40
    hi2c->State = HAL_I2C_STATE_READY;
 8002ff4:	3341      	adds	r3, #65	; 0x41
 8002ff6:	7019      	strb	r1, [r3, #0]
    hi2c->Mode  = HAL_I2C_MODE_NONE;
 8002ff8:	7028      	strb	r0, [r5, #0]
    __HAL_UNLOCK(hi2c);
 8002ffa:	7020      	strb	r0, [r4, #0]
    return HAL_OK;
 8002ffc:	e010      	b.n	8003020 <HAL_I2C_Master_Receive+0xc8>
      hi2c->XferSize = hi2c->XferCount;
 8002ffe:	8d62      	ldrh	r2, [r4, #42]	; 0x2a
 8003000:	b292      	uxth	r2, r2
 8003002:	8522      	strh	r2, [r4, #40]	; 0x28
      I2C_TransferConfig(hi2c, DevAddress, hi2c->XferSize, I2C_AUTOEND_MODE, I2C_GENERATE_START_READ);
 8003004:	9300      	str	r3, [sp, #0]
 8003006:	2380      	movs	r3, #128	; 0x80
 8003008:	b2d2      	uxtb	r2, r2
 800300a:	049b      	lsls	r3, r3, #18
 800300c:	e7da      	b.n	8002fc4 <HAL_I2C_Master_Receive+0x6c>
      if (I2C_WaitOnRXNEFlagUntilTimeout(hi2c, Timeout, tickstart) != HAL_OK)
 800300e:	f7ff fe4d 	bl	8002cac <I2C_WaitOnRXNEFlagUntilTimeout>
 8003012:	2800      	cmp	r0, #0
 8003014:	d006      	beq.n	8003024 <HAL_I2C_Master_Receive+0xcc>
        if (hi2c->ErrorCode == HAL_I2C_ERROR_AF)
 8003016:	6c63      	ldr	r3, [r4, #68]	; 0x44
          return HAL_ERROR;
 8003018:	2001      	movs	r0, #1
        if (hi2c->ErrorCode == HAL_I2C_ERROR_AF)
 800301a:	2b04      	cmp	r3, #4
 800301c:	d000      	beq.n	8003020 <HAL_I2C_Master_Receive+0xc8>
          return HAL_TIMEOUT;
 800301e:	2003      	movs	r0, #3
}
 8003020:	b007      	add	sp, #28
 8003022:	bdf0      	pop	{r4, r5, r6, r7, pc}
      (*hi2c->pBuffPtr++) = hi2c->Instance->RXDR;
 8003024:	6a63      	ldr	r3, [r4, #36]	; 0x24
 8003026:	1c5a      	adds	r2, r3, #1
 8003028:	6262      	str	r2, [r4, #36]	; 0x24
 800302a:	6822      	ldr	r2, [r4, #0]
 800302c:	6a52      	ldr	r2, [r2, #36]	; 0x24
 800302e:	701a      	strb	r2, [r3, #0]
      hi2c->XferSize--;
 8003030:	8d22      	ldrh	r2, [r4, #40]	; 0x28
      hi2c->XferCount--;
 8003032:	8d63      	ldrh	r3, [r4, #42]	; 0x2a
      hi2c->XferSize--;
 8003034:	3a01      	subs	r2, #1
      hi2c->XferCount--;
 8003036:	3b01      	subs	r3, #1
      hi2c->XferSize--;
 8003038:	b292      	uxth	r2, r2
      hi2c->XferCount--;
 800303a:	b29b      	uxth	r3, r3
      hi2c->XferSize--;
 800303c:	8522      	strh	r2, [r4, #40]	; 0x28
      hi2c->XferCount--;
 800303e:	8563      	strh	r3, [r4, #42]	; 0x2a
      if ((hi2c->XferSize == 0U) && (hi2c->XferCount != 0U))
 8003040:	2a00      	cmp	r2, #0
 8003042:	d1c4      	bne.n	8002fce <HAL_I2C_Master_Receive+0x76>
 8003044:	8d63      	ldrh	r3, [r4, #42]	; 0x2a
 8003046:	2b00      	cmp	r3, #0
 8003048:	d0c1      	beq.n	8002fce <HAL_I2C_Master_Receive+0x76>
        if (I2C_WaitOnFlagUntilTimeout(hi2c, I2C_FLAG_TCR, RESET, Timeout, tickstart) != HAL_OK)
 800304a:	9700      	str	r7, [sp, #0]
 800304c:	9b0c      	ldr	r3, [sp, #48]	; 0x30
 800304e:	2180      	movs	r1, #128	; 0x80
 8003050:	0020      	movs	r0, r4
 8003052:	f7ff fd97 	bl	8002b84 <I2C_WaitOnFlagUntilTimeout>
 8003056:	2800      	cmp	r0, #0
 8003058:	d1e1      	bne.n	800301e <HAL_I2C_Master_Receive+0xc6>
        if (hi2c->XferCount > MAX_NBYTE_SIZE)
 800305a:	8d63      	ldrh	r3, [r4, #42]	; 0x2a
 800305c:	2bff      	cmp	r3, #255	; 0xff
 800305e:	d909      	bls.n	8003074 <HAL_I2C_Master_Receive+0x11c>
          I2C_TransferConfig(hi2c, DevAddress, hi2c->XferSize, I2C_RELOAD_MODE, I2C_NO_STARTSTOP);
 8003060:	2380      	movs	r3, #128	; 0x80
 8003062:	22ff      	movs	r2, #255	; 0xff
          hi2c->XferSize = MAX_NBYTE_SIZE;
 8003064:	8526      	strh	r6, [r4, #40]	; 0x28
          I2C_TransferConfig(hi2c, DevAddress, hi2c->XferSize, I2C_RELOAD_MODE, I2C_NO_STARTSTOP);
 8003066:	045b      	lsls	r3, r3, #17
 8003068:	9000      	str	r0, [sp, #0]
          I2C_TransferConfig(hi2c, DevAddress, hi2c->XferSize, I2C_AUTOEND_MODE, I2C_NO_STARTSTOP);
 800306a:	9903      	ldr	r1, [sp, #12]
 800306c:	0020      	movs	r0, r4
 800306e:	f7ff fd77 	bl	8002b60 <I2C_TransferConfig>
 8003072:	e7ac      	b.n	8002fce <HAL_I2C_Master_Receive+0x76>
 8003074:	2380      	movs	r3, #128	; 0x80
          hi2c->XferSize = hi2c->XferCount;
 8003076:	8d62      	ldrh	r2, [r4, #42]	; 0x2a
          I2C_TransferConfig(hi2c, DevAddress, hi2c->XferSize, I2C_AUTOEND_MODE, I2C_NO_STARTSTOP);
 8003078:	049b      	lsls	r3, r3, #18
          hi2c->XferSize = hi2c->XferCount;
 800307a:	b292      	uxth	r2, r2
 800307c:	8522      	strh	r2, [r4, #40]	; 0x28
          I2C_TransferConfig(hi2c, DevAddress, hi2c->XferSize, I2C_AUTOEND_MODE, I2C_NO_STARTSTOP);
 800307e:	b2d2      	uxtb	r2, r2
 8003080:	9000      	str	r0, [sp, #0]
 8003082:	e7f2      	b.n	800306a <HAL_I2C_Master_Receive+0x112>
 8003084:	fe00e800 	.word	0xfe00e800

08003088 <HAL_I2CEx_ConfigAnalogFilter>:
  *                the configuration information for the specified I2Cx peripheral.
  * @param  AnalogFilter New state of the Analog filter.
  * @retval HAL status
  */
HAL_StatusTypeDef HAL_I2CEx_ConfigAnalogFilter(I2C_HandleTypeDef *hi2c, uint32_t AnalogFilter)
{
 8003088:	b5f0      	push	{r4, r5, r6, r7, lr}
  /* Check the parameters */
  assert_param(IS_I2C_ALL_INSTANCE(hi2c->Instance));
  assert_param(IS_I2C_ANALOG_FILTER(AnalogFilter));

  if (hi2c->State == HAL_I2C_STATE_READY)
 800308a:	0004      	movs	r4, r0
 800308c:	3441      	adds	r4, #65	; 0x41
 800308e:	7822      	ldrb	r2, [r4, #0]
{
 8003090:	0003      	movs	r3, r0
  if (hi2c->State == HAL_I2C_STATE_READY)
 8003092:	b2d2      	uxtb	r2, r2

    return HAL_OK;
  }
  else
  {
    return HAL_BUSY;
 8003094:	2002      	movs	r0, #2
  if (hi2c->State == HAL_I2C_STATE_READY)
 8003096:	2a20      	cmp	r2, #32
 8003098:	d118      	bne.n	80030cc <HAL_I2CEx_ConfigAnalogFilter+0x44>
    __HAL_LOCK(hi2c);
 800309a:	001d      	movs	r5, r3
 800309c:	3540      	adds	r5, #64	; 0x40
 800309e:	782e      	ldrb	r6, [r5, #0]
 80030a0:	2e01      	cmp	r6, #1
 80030a2:	d013      	beq.n	80030cc <HAL_I2CEx_ConfigAnalogFilter+0x44>
    __HAL_I2C_DISABLE(hi2c);
 80030a4:	681b      	ldr	r3, [r3, #0]
    hi2c->State = HAL_I2C_STATE_BUSY;
 80030a6:	3022      	adds	r0, #34	; 0x22
 80030a8:	7020      	strb	r0, [r4, #0]
    __HAL_I2C_DISABLE(hi2c);
 80030aa:	681e      	ldr	r6, [r3, #0]
 80030ac:	3823      	subs	r0, #35	; 0x23
 80030ae:	4386      	bics	r6, r0
 80030b0:	601e      	str	r6, [r3, #0]
    hi2c->Instance->CR1 &= ~(I2C_CR1_ANFOFF);
 80030b2:	681e      	ldr	r6, [r3, #0]
 80030b4:	4f06      	ldr	r7, [pc, #24]	; (80030d0 <HAL_I2CEx_ConfigAnalogFilter+0x48>)
 80030b6:	403e      	ands	r6, r7
 80030b8:	601e      	str	r6, [r3, #0]
    hi2c->Instance->CR1 |= AnalogFilter;
 80030ba:	681e      	ldr	r6, [r3, #0]
 80030bc:	4331      	orrs	r1, r6
 80030be:	6019      	str	r1, [r3, #0]
    __HAL_I2C_ENABLE(hi2c);
 80030c0:	6819      	ldr	r1, [r3, #0]
 80030c2:	4308      	orrs	r0, r1
 80030c4:	6018      	str	r0, [r3, #0]
    __HAL_UNLOCK(hi2c);
 80030c6:	2000      	movs	r0, #0
    hi2c->State = HAL_I2C_STATE_READY;
 80030c8:	7022      	strb	r2, [r4, #0]
    __HAL_UNLOCK(hi2c);
 80030ca:	7028      	strb	r0, [r5, #0]
  }
}
 80030cc:	bdf0      	pop	{r4, r5, r6, r7, pc}
 80030ce:	46c0      	nop			; (mov r8, r8)
 80030d0:	ffffefff 	.word	0xffffefff

080030d4 <HAL_I2CEx_ConfigDigitalFilter>:
  *                the configuration information for the specified I2Cx peripheral.
  * @param  DigitalFilter Coefficient of digital noise filter between Min_Data=0x00 and Max_Data=0x0F.
  * @retval HAL status
  */
HAL_StatusTypeDef HAL_I2CEx_ConfigDigitalFilter(I2C_HandleTypeDef *hi2c, uint32_t DigitalFilter)
{
 80030d4:	b5f0      	push	{r4, r5, r6, r7, lr}

  /* Check the parameters */
  assert_param(IS_I2C_ALL_INSTANCE(hi2c->Instance));
  assert_param(IS_I2C_DIGITAL_FILTER(DigitalFilter));

  if (hi2c->State == HAL_I2C_STATE_READY)
 80030d6:	0005      	movs	r5, r0
 80030d8:	3541      	adds	r5, #65	; 0x41
 80030da:	782a      	ldrb	r2, [r5, #0]
{
 80030dc:	0003      	movs	r3, r0
  if (hi2c->State == HAL_I2C_STATE_READY)
 80030de:	b2d2      	uxtb	r2, r2

    return HAL_OK;
  }
  else
  {
    return HAL_BUSY;
 80030e0:	2002      	movs	r0, #2
  if (hi2c->State == HAL_I2C_STATE_READY)
 80030e2:	2a20      	cmp	r2, #32
 80030e4:	d117      	bne.n	8003116 <HAL_I2CEx_ConfigDigitalFilter+0x42>
    __HAL_LOCK(hi2c);
 80030e6:	001c      	movs	r4, r3
 80030e8:	3440      	adds	r4, #64	; 0x40
 80030ea:	7826      	ldrb	r6, [r4, #0]
 80030ec:	2e01      	cmp	r6, #1
 80030ee:	d012      	beq.n	8003116 <HAL_I2CEx_ConfigDigitalFilter+0x42>
    __HAL_I2C_DISABLE(hi2c);
 80030f0:	681b      	ldr	r3, [r3, #0]
    hi2c->State = HAL_I2C_STATE_BUSY;
 80030f2:	3022      	adds	r0, #34	; 0x22
 80030f4:	7028      	strb	r0, [r5, #0]
    __HAL_I2C_DISABLE(hi2c);
 80030f6:	681e      	ldr	r6, [r3, #0]
 80030f8:	3823      	subs	r0, #35	; 0x23
 80030fa:	4386      	bics	r6, r0
 80030fc:	601e      	str	r6, [r3, #0]
    tmpreg = hi2c->Instance->CR1;
 80030fe:	681e      	ldr	r6, [r3, #0]
    tmpreg &= ~(I2C_CR1_DNF);
 8003100:	4f05      	ldr	r7, [pc, #20]	; (8003118 <HAL_I2CEx_ConfigDigitalFilter+0x44>)
    tmpreg |= DigitalFilter << 8U;
 8003102:	0209      	lsls	r1, r1, #8
    tmpreg &= ~(I2C_CR1_DNF);
 8003104:	403e      	ands	r6, r7
    tmpreg |= DigitalFilter << 8U;
 8003106:	4331      	orrs	r1, r6
    hi2c->Instance->CR1 = tmpreg;
 8003108:	6019      	str	r1, [r3, #0]
    __HAL_I2C_ENABLE(hi2c);
 800310a:	6819      	ldr	r1, [r3, #0]
 800310c:	4308      	orrs	r0, r1
 800310e:	6018      	str	r0, [r3, #0]
    __HAL_UNLOCK(hi2c);
 8003110:	2000      	movs	r0, #0
    hi2c->State = HAL_I2C_STATE_READY;
 8003112:	702a      	strb	r2, [r5, #0]
    __HAL_UNLOCK(hi2c);
 8003114:	7020      	strb	r0, [r4, #0]
  }
}
 8003116:	bdf0      	pop	{r4, r5, r6, r7, pc}
 8003118:	fffff0ff 	.word	0xfffff0ff

0800311c <HAL_RCC_OscConfig>:
  *         supported by this macro. User should request a transition to HSE Off
  *         first and then HSE On or HSE Bypass.
  * @retval HAL status
  */
HAL_StatusTypeDef HAL_RCC_OscConfig(RCC_OscInitTypeDef  *RCC_OscInitStruct)
{
 800311c:	b5f0      	push	{r4, r5, r6, r7, lr}
  /* Check the parameters */
  assert_param(RCC_OscInitStruct != NULL);
  assert_param(IS_RCC_OSCILLATORTYPE(RCC_OscInitStruct->OscillatorType));

  /*------------------------------- HSE Configuration ------------------------*/ 
  if(((RCC_OscInitStruct->OscillatorType) & RCC_OSCILLATORTYPE_HSE) == RCC_OSCILLATORTYPE_HSE)
 800311e:	6803      	ldr	r3, [r0, #0]
{
 8003120:	b085      	sub	sp, #20
 8003122:	0005      	movs	r5, r0
  if(((RCC_OscInitStruct->OscillatorType) & RCC_OSCILLATORTYPE_HSE) == RCC_OSCILLATORTYPE_HSE)
 8003124:	07db      	lsls	r3, r3, #31
 8003126:	d42f      	bmi.n	8003188 <HAL_RCC_OscConfig+0x6c>
        }
      }
    }
  }
  /*----------------------------- HSI Configuration --------------------------*/ 
  if(((RCC_OscInitStruct->OscillatorType) & RCC_OSCILLATORTYPE_HSI) == RCC_OSCILLATORTYPE_HSI)
 8003128:	682b      	ldr	r3, [r5, #0]
 800312a:	079b      	lsls	r3, r3, #30
 800312c:	d500      	bpl.n	8003130 <HAL_RCC_OscConfig+0x14>
 800312e:	e081      	b.n	8003234 <HAL_RCC_OscConfig+0x118>
        }
      }
    }
  }
  /*------------------------------ LSI Configuration -------------------------*/ 
  if(((RCC_OscInitStruct->OscillatorType) & RCC_OSCILLATORTYPE_LSI) == RCC_OSCILLATORTYPE_LSI)
 8003130:	682b      	ldr	r3, [r5, #0]
 8003132:	071b      	lsls	r3, r3, #28
 8003134:	d500      	bpl.n	8003138 <HAL_RCC_OscConfig+0x1c>
 8003136:	e0bc      	b.n	80032b2 <HAL_RCC_OscConfig+0x196>
        }
      }
    }
  }
  /*------------------------------ LSE Configuration -------------------------*/ 
  if(((RCC_OscInitStruct->OscillatorType) & RCC_OSCILLATORTYPE_LSE) == RCC_OSCILLATORTYPE_LSE)
 8003138:	682b      	ldr	r3, [r5, #0]
 800313a:	075b      	lsls	r3, r3, #29
 800313c:	d500      	bpl.n	8003140 <HAL_RCC_OscConfig+0x24>
 800313e:	e0df      	b.n	8003300 <HAL_RCC_OscConfig+0x1e4>
      __HAL_RCC_PWR_CLK_DISABLE();
    }
  }

  /*----------------------------- HSI14 Configuration --------------------------*/
  if(((RCC_OscInitStruct->OscillatorType) & RCC_OSCILLATORTYPE_HSI14) == RCC_OSCILLATORTYPE_HSI14)
 8003140:	682b      	ldr	r3, [r5, #0]
 8003142:	06db      	lsls	r3, r3, #27
 8003144:	d51a      	bpl.n	800317c <HAL_RCC_OscConfig+0x60>
    /* Check the parameters */
    assert_param(IS_RCC_HSI14(RCC_OscInitStruct->HSI14State));
    assert_param(IS_RCC_CALIBRATION_VALUE(RCC_OscInitStruct->HSI14CalibrationValue));

    /* Check the HSI14 State */
    if(RCC_OscInitStruct->HSI14State == RCC_HSI14_ON)
 8003146:	696a      	ldr	r2, [r5, #20]
 8003148:	4cb5      	ldr	r4, [pc, #724]	; (8003420 <HAL_RCC_OscConfig+0x304>)
 800314a:	2304      	movs	r3, #4
 800314c:	2a01      	cmp	r2, #1
 800314e:	d000      	beq.n	8003152 <HAL_RCC_OscConfig+0x36>
 8003150:	e14b      	b.n	80033ea <HAL_RCC_OscConfig+0x2ce>
    {
      /* Disable ADC control of the Internal High Speed oscillator HSI14 */
      __HAL_RCC_HSI14ADC_DISABLE();
 8003152:	6b61      	ldr	r1, [r4, #52]	; 0x34

      /* Get Start Tick */
      tickstart = HAL_GetTick();
      
      /* Wait till HSI is ready */  
      while(__HAL_RCC_GET_FLAG(RCC_FLAG_HSI14RDY) == RESET)
 8003154:	2602      	movs	r6, #2
      __HAL_RCC_HSI14ADC_DISABLE();
 8003156:	430b      	orrs	r3, r1
 8003158:	6363      	str	r3, [r4, #52]	; 0x34
      __HAL_RCC_HSI14_ENABLE();
 800315a:	6b63      	ldr	r3, [r4, #52]	; 0x34
 800315c:	431a      	orrs	r2, r3
 800315e:	6362      	str	r2, [r4, #52]	; 0x34
      tickstart = HAL_GetTick();
 8003160:	f7ff fbc6 	bl	80028f0 <HAL_GetTick>
 8003164:	0007      	movs	r7, r0
      while(__HAL_RCC_GET_FLAG(RCC_FLAG_HSI14RDY) == RESET)
 8003166:	6b63      	ldr	r3, [r4, #52]	; 0x34
 8003168:	4233      	tst	r3, r6
 800316a:	d100      	bne.n	800316e <HAL_RCC_OscConfig+0x52>
 800316c:	e136      	b.n	80033dc <HAL_RCC_OscConfig+0x2c0>
    {
      /* Enable ADC control of the Internal High Speed oscillator HSI14 */
      __HAL_RCC_HSI14ADC_ENABLE();

      /* Adjusts the Internal High Speed oscillator 14Mhz (HSI14) calibration value. */
      __HAL_RCC_HSI14_CALIBRATIONVALUE_ADJUST(RCC_OscInitStruct->HSI14CalibrationValue);
 800316e:	21f8      	movs	r1, #248	; 0xf8
 8003170:	6b62      	ldr	r2, [r4, #52]	; 0x34
 8003172:	69ab      	ldr	r3, [r5, #24]
 8003174:	438a      	bics	r2, r1
 8003176:	00db      	lsls	r3, r3, #3
 8003178:	4313      	orrs	r3, r2
 800317a:	6363      	str	r3, [r4, #52]	; 0x34
#endif /* RCC_HSI48_SUPPORT */
       
  /*-------------------------------- PLL Configuration -----------------------*/
  /* Check the parameters */
  assert_param(IS_RCC_PLL(RCC_OscInitStruct->PLL.PLLState));
  if ((RCC_OscInitStruct->PLL.PLLState) != RCC_PLL_NONE)
 800317c:	6a29      	ldr	r1, [r5, #32]
 800317e:	2900      	cmp	r1, #0
 8003180:	d000      	beq.n	8003184 <HAL_RCC_OscConfig+0x68>
 8003182:	e159      	b.n	8003438 <HAL_RCC_OscConfig+0x31c>
    {
      return HAL_ERROR;
    }
  }
  
  return HAL_OK;
 8003184:	2000      	movs	r0, #0
 8003186:	e013      	b.n	80031b0 <HAL_RCC_OscConfig+0x94>
    if((__HAL_RCC_GET_SYSCLK_SOURCE() == RCC_SYSCLKSOURCE_STATUS_HSE) 
 8003188:	210c      	movs	r1, #12
 800318a:	4ca5      	ldr	r4, [pc, #660]	; (8003420 <HAL_RCC_OscConfig+0x304>)
 800318c:	6862      	ldr	r2, [r4, #4]
 800318e:	400a      	ands	r2, r1
 8003190:	2a04      	cmp	r2, #4
 8003192:	d006      	beq.n	80031a2 <HAL_RCC_OscConfig+0x86>
       || ((__HAL_RCC_GET_SYSCLK_SOURCE() == RCC_SYSCLKSOURCE_STATUS_PLLCLK) && (__HAL_RCC_GET_PLL_OSCSOURCE() == RCC_PLLSOURCE_HSE)))
 8003194:	6863      	ldr	r3, [r4, #4]
 8003196:	400b      	ands	r3, r1
 8003198:	2b08      	cmp	r3, #8
 800319a:	d10b      	bne.n	80031b4 <HAL_RCC_OscConfig+0x98>
 800319c:	6863      	ldr	r3, [r4, #4]
 800319e:	03db      	lsls	r3, r3, #15
 80031a0:	d508      	bpl.n	80031b4 <HAL_RCC_OscConfig+0x98>
      if((__HAL_RCC_GET_FLAG(RCC_FLAG_HSERDY) != RESET) && (RCC_OscInitStruct->HSEState == RCC_HSE_OFF))
 80031a2:	6823      	ldr	r3, [r4, #0]
 80031a4:	039b      	lsls	r3, r3, #14
 80031a6:	d5bf      	bpl.n	8003128 <HAL_RCC_OscConfig+0xc>
 80031a8:	686b      	ldr	r3, [r5, #4]
 80031aa:	2b00      	cmp	r3, #0
 80031ac:	d1bc      	bne.n	8003128 <HAL_RCC_OscConfig+0xc>
        return HAL_ERROR;
 80031ae:	2001      	movs	r0, #1
}
 80031b0:	b005      	add	sp, #20
 80031b2:	bdf0      	pop	{r4, r5, r6, r7, pc}
      __HAL_RCC_HSE_CONFIG(RCC_OscInitStruct->HSEState);
 80031b4:	686b      	ldr	r3, [r5, #4]
 80031b6:	2b01      	cmp	r3, #1
 80031b8:	d113      	bne.n	80031e2 <HAL_RCC_OscConfig+0xc6>
 80031ba:	2380      	movs	r3, #128	; 0x80
 80031bc:	6822      	ldr	r2, [r4, #0]
 80031be:	025b      	lsls	r3, r3, #9
 80031c0:	4313      	orrs	r3, r2
 80031c2:	6023      	str	r3, [r4, #0]
        tickstart = HAL_GetTick();
 80031c4:	f7ff fb94 	bl	80028f0 <HAL_GetTick>
        while(__HAL_RCC_GET_FLAG(RCC_FLAG_HSERDY) == RESET)
 80031c8:	2680      	movs	r6, #128	; 0x80
        tickstart = HAL_GetTick();
 80031ca:	0007      	movs	r7, r0
        while(__HAL_RCC_GET_FLAG(RCC_FLAG_HSERDY) == RESET)
 80031cc:	02b6      	lsls	r6, r6, #10
 80031ce:	6823      	ldr	r3, [r4, #0]
 80031d0:	4233      	tst	r3, r6
 80031d2:	d1a9      	bne.n	8003128 <HAL_RCC_OscConfig+0xc>
          if((HAL_GetTick() - tickstart ) > HSE_TIMEOUT_VALUE)
 80031d4:	f7ff fb8c 	bl	80028f0 <HAL_GetTick>
 80031d8:	1bc0      	subs	r0, r0, r7
 80031da:	2864      	cmp	r0, #100	; 0x64
 80031dc:	d9f7      	bls.n	80031ce <HAL_RCC_OscConfig+0xb2>
            return HAL_TIMEOUT;
 80031de:	2003      	movs	r0, #3
 80031e0:	e7e6      	b.n	80031b0 <HAL_RCC_OscConfig+0x94>
      __HAL_RCC_HSE_CONFIG(RCC_OscInitStruct->HSEState);
 80031e2:	2b00      	cmp	r3, #0
 80031e4:	d116      	bne.n	8003214 <HAL_RCC_OscConfig+0xf8>
 80031e6:	6823      	ldr	r3, [r4, #0]
 80031e8:	4a8e      	ldr	r2, [pc, #568]	; (8003424 <HAL_RCC_OscConfig+0x308>)
        while(__HAL_RCC_GET_FLAG(RCC_FLAG_HSERDY) != RESET)
 80031ea:	2680      	movs	r6, #128	; 0x80
      __HAL_RCC_HSE_CONFIG(RCC_OscInitStruct->HSEState);
 80031ec:	4013      	ands	r3, r2
 80031ee:	6023      	str	r3, [r4, #0]
 80031f0:	6823      	ldr	r3, [r4, #0]
 80031f2:	4a8d      	ldr	r2, [pc, #564]	; (8003428 <HAL_RCC_OscConfig+0x30c>)
        while(__HAL_RCC_GET_FLAG(RCC_FLAG_HSERDY) != RESET)
 80031f4:	02b6      	lsls	r6, r6, #10
      __HAL_RCC_HSE_CONFIG(RCC_OscInitStruct->HSEState);
 80031f6:	4013      	ands	r3, r2
 80031f8:	6023      	str	r3, [r4, #0]
        tickstart = HAL_GetTick();
 80031fa:	f7ff fb79 	bl	80028f0 <HAL_GetTick>
 80031fe:	0007      	movs	r7, r0
        while(__HAL_RCC_GET_FLAG(RCC_FLAG_HSERDY) != RESET)
 8003200:	6823      	ldr	r3, [r4, #0]
 8003202:	4233      	tst	r3, r6
 8003204:	d100      	bne.n	8003208 <HAL_RCC_OscConfig+0xec>
 8003206:	e78f      	b.n	8003128 <HAL_RCC_OscConfig+0xc>
           if((HAL_GetTick() - tickstart ) > HSE_TIMEOUT_VALUE)
 8003208:	f7ff fb72 	bl	80028f0 <HAL_GetTick>
 800320c:	1bc0      	subs	r0, r0, r7
 800320e:	2864      	cmp	r0, #100	; 0x64
 8003210:	d9f6      	bls.n	8003200 <HAL_RCC_OscConfig+0xe4>
 8003212:	e7e4      	b.n	80031de <HAL_RCC_OscConfig+0xc2>
      __HAL_RCC_HSE_CONFIG(RCC_OscInitStruct->HSEState);
 8003214:	2b05      	cmp	r3, #5
 8003216:	d105      	bne.n	8003224 <HAL_RCC_OscConfig+0x108>
 8003218:	2380      	movs	r3, #128	; 0x80
 800321a:	6822      	ldr	r2, [r4, #0]
 800321c:	02db      	lsls	r3, r3, #11
 800321e:	4313      	orrs	r3, r2
 8003220:	6023      	str	r3, [r4, #0]
 8003222:	e7ca      	b.n	80031ba <HAL_RCC_OscConfig+0x9e>
 8003224:	6823      	ldr	r3, [r4, #0]
 8003226:	4a7f      	ldr	r2, [pc, #508]	; (8003424 <HAL_RCC_OscConfig+0x308>)
 8003228:	4013      	ands	r3, r2
 800322a:	6023      	str	r3, [r4, #0]
 800322c:	6823      	ldr	r3, [r4, #0]
 800322e:	4a7e      	ldr	r2, [pc, #504]	; (8003428 <HAL_RCC_OscConfig+0x30c>)
 8003230:	4013      	ands	r3, r2
 8003232:	e7c6      	b.n	80031c2 <HAL_RCC_OscConfig+0xa6>
    if((__HAL_RCC_GET_SYSCLK_SOURCE() == RCC_SYSCLKSOURCE_STATUS_HSI) 
 8003234:	220c      	movs	r2, #12
 8003236:	4c7a      	ldr	r4, [pc, #488]	; (8003420 <HAL_RCC_OscConfig+0x304>)
 8003238:	6863      	ldr	r3, [r4, #4]
 800323a:	4213      	tst	r3, r2
 800323c:	d006      	beq.n	800324c <HAL_RCC_OscConfig+0x130>
       || ((__HAL_RCC_GET_SYSCLK_SOURCE() == RCC_SYSCLKSOURCE_STATUS_PLLCLK) && (__HAL_RCC_GET_PLL_OSCSOURCE() == RCC_PLLSOURCE_HSI)))
 800323e:	6863      	ldr	r3, [r4, #4]
 8003240:	4013      	ands	r3, r2
 8003242:	2b08      	cmp	r3, #8
 8003244:	d110      	bne.n	8003268 <HAL_RCC_OscConfig+0x14c>
 8003246:	6863      	ldr	r3, [r4, #4]
 8003248:	03db      	lsls	r3, r3, #15
 800324a:	d40d      	bmi.n	8003268 <HAL_RCC_OscConfig+0x14c>
      if((__HAL_RCC_GET_FLAG(RCC_FLAG_HSIRDY) != RESET) && (RCC_OscInitStruct->HSIState != RCC_HSI_ON))
 800324c:	6823      	ldr	r3, [r4, #0]
 800324e:	079b      	lsls	r3, r3, #30
 8003250:	d502      	bpl.n	8003258 <HAL_RCC_OscConfig+0x13c>
 8003252:	68eb      	ldr	r3, [r5, #12]
 8003254:	2b01      	cmp	r3, #1
 8003256:	d1aa      	bne.n	80031ae <HAL_RCC_OscConfig+0x92>
        __HAL_RCC_HSI_CALIBRATIONVALUE_ADJUST(RCC_OscInitStruct->HSICalibrationValue);
 8003258:	21f8      	movs	r1, #248	; 0xf8
 800325a:	6822      	ldr	r2, [r4, #0]
 800325c:	692b      	ldr	r3, [r5, #16]
 800325e:	438a      	bics	r2, r1
 8003260:	00db      	lsls	r3, r3, #3
 8003262:	4313      	orrs	r3, r2
 8003264:	6023      	str	r3, [r4, #0]
 8003266:	e763      	b.n	8003130 <HAL_RCC_OscConfig+0x14>
      if(RCC_OscInitStruct->HSIState != RCC_HSI_OFF)
 8003268:	68ea      	ldr	r2, [r5, #12]
 800326a:	2301      	movs	r3, #1
 800326c:	2a00      	cmp	r2, #0
 800326e:	d00f      	beq.n	8003290 <HAL_RCC_OscConfig+0x174>
        __HAL_RCC_HSI_ENABLE();
 8003270:	6822      	ldr	r2, [r4, #0]
        while(__HAL_RCC_GET_FLAG(RCC_FLAG_HSIRDY) == RESET)
 8003272:	2602      	movs	r6, #2
        __HAL_RCC_HSI_ENABLE();
 8003274:	4313      	orrs	r3, r2
 8003276:	6023      	str	r3, [r4, #0]
        tickstart = HAL_GetTick();
 8003278:	f7ff fb3a 	bl	80028f0 <HAL_GetTick>
 800327c:	0007      	movs	r7, r0
        while(__HAL_RCC_GET_FLAG(RCC_FLAG_HSIRDY) == RESET)
 800327e:	6823      	ldr	r3, [r4, #0]
 8003280:	4233      	tst	r3, r6
 8003282:	d1e9      	bne.n	8003258 <HAL_RCC_OscConfig+0x13c>
          if((HAL_GetTick() - tickstart ) > HSI_TIMEOUT_VALUE)
 8003284:	f7ff fb34 	bl	80028f0 <HAL_GetTick>
 8003288:	1bc0      	subs	r0, r0, r7
 800328a:	2802      	cmp	r0, #2
 800328c:	d9f7      	bls.n	800327e <HAL_RCC_OscConfig+0x162>
 800328e:	e7a6      	b.n	80031de <HAL_RCC_OscConfig+0xc2>
        __HAL_RCC_HSI_DISABLE();
 8003290:	6822      	ldr	r2, [r4, #0]
        while(__HAL_RCC_GET_FLAG(RCC_FLAG_HSIRDY) != RESET)
 8003292:	2602      	movs	r6, #2
        __HAL_RCC_HSI_DISABLE();
 8003294:	439a      	bics	r2, r3
 8003296:	6022      	str	r2, [r4, #0]
        tickstart = HAL_GetTick();
 8003298:	f7ff fb2a 	bl	80028f0 <HAL_GetTick>
 800329c:	0007      	movs	r7, r0
        while(__HAL_RCC_GET_FLAG(RCC_FLAG_HSIRDY) != RESET)
 800329e:	6823      	ldr	r3, [r4, #0]
 80032a0:	4233      	tst	r3, r6
 80032a2:	d100      	bne.n	80032a6 <HAL_RCC_OscConfig+0x18a>
 80032a4:	e744      	b.n	8003130 <HAL_RCC_OscConfig+0x14>
          if((HAL_GetTick() - tickstart ) > HSI_TIMEOUT_VALUE)
 80032a6:	f7ff fb23 	bl	80028f0 <HAL_GetTick>
 80032aa:	1bc0      	subs	r0, r0, r7
 80032ac:	2802      	cmp	r0, #2
 80032ae:	d9f6      	bls.n	800329e <HAL_RCC_OscConfig+0x182>
 80032b0:	e795      	b.n	80031de <HAL_RCC_OscConfig+0xc2>
    if(RCC_OscInitStruct->LSIState != RCC_LSI_OFF)
 80032b2:	69ea      	ldr	r2, [r5, #28]
 80032b4:	2301      	movs	r3, #1
 80032b6:	4c5a      	ldr	r4, [pc, #360]	; (8003420 <HAL_RCC_OscConfig+0x304>)
 80032b8:	2a00      	cmp	r2, #0
 80032ba:	d010      	beq.n	80032de <HAL_RCC_OscConfig+0x1c2>
      __HAL_RCC_LSI_ENABLE();
 80032bc:	6a62      	ldr	r2, [r4, #36]	; 0x24
      while(__HAL_RCC_GET_FLAG(RCC_FLAG_LSIRDY) == RESET)
 80032be:	2602      	movs	r6, #2
      __HAL_RCC_LSI_ENABLE();
 80032c0:	4313      	orrs	r3, r2
 80032c2:	6263      	str	r3, [r4, #36]	; 0x24
      tickstart = HAL_GetTick();
 80032c4:	f7ff fb14 	bl	80028f0 <HAL_GetTick>
 80032c8:	0007      	movs	r7, r0
      while(__HAL_RCC_GET_FLAG(RCC_FLAG_LSIRDY) == RESET)
 80032ca:	6a63      	ldr	r3, [r4, #36]	; 0x24
 80032cc:	4233      	tst	r3, r6
 80032ce:	d000      	beq.n	80032d2 <HAL_RCC_OscConfig+0x1b6>
 80032d0:	e732      	b.n	8003138 <HAL_RCC_OscConfig+0x1c>
        if((HAL_GetTick() - tickstart ) > LSI_TIMEOUT_VALUE)
 80032d2:	f7ff fb0d 	bl	80028f0 <HAL_GetTick>
 80032d6:	1bc0      	subs	r0, r0, r7
 80032d8:	2802      	cmp	r0, #2
 80032da:	d9f6      	bls.n	80032ca <HAL_RCC_OscConfig+0x1ae>
 80032dc:	e77f      	b.n	80031de <HAL_RCC_OscConfig+0xc2>
      __HAL_RCC_LSI_DISABLE();
 80032de:	6a62      	ldr	r2, [r4, #36]	; 0x24
      while(__HAL_RCC_GET_FLAG(RCC_FLAG_LSIRDY) != RESET)
 80032e0:	2602      	movs	r6, #2
      __HAL_RCC_LSI_DISABLE();
 80032e2:	439a      	bics	r2, r3
 80032e4:	6262      	str	r2, [r4, #36]	; 0x24
      tickstart = HAL_GetTick();
 80032e6:	f7ff fb03 	bl	80028f0 <HAL_GetTick>
 80032ea:	0007      	movs	r7, r0
      while(__HAL_RCC_GET_FLAG(RCC_FLAG_LSIRDY) != RESET)
 80032ec:	6a63      	ldr	r3, [r4, #36]	; 0x24
 80032ee:	4233      	tst	r3, r6
 80032f0:	d100      	bne.n	80032f4 <HAL_RCC_OscConfig+0x1d8>
 80032f2:	e721      	b.n	8003138 <HAL_RCC_OscConfig+0x1c>
        if((HAL_GetTick() - tickstart ) > LSI_TIMEOUT_VALUE)
 80032f4:	f7ff fafc 	bl	80028f0 <HAL_GetTick>
 80032f8:	1bc0      	subs	r0, r0, r7
 80032fa:	2802      	cmp	r0, #2
 80032fc:	d9f6      	bls.n	80032ec <HAL_RCC_OscConfig+0x1d0>
 80032fe:	e76e      	b.n	80031de <HAL_RCC_OscConfig+0xc2>
    if(__HAL_RCC_PWR_IS_CLK_DISABLED())
 8003300:	2280      	movs	r2, #128	; 0x80
    FlagStatus       pwrclkchanged = RESET;
 8003302:	2100      	movs	r1, #0
    if(__HAL_RCC_PWR_IS_CLK_DISABLED())
 8003304:	4c46      	ldr	r4, [pc, #280]	; (8003420 <HAL_RCC_OscConfig+0x304>)
 8003306:	0552      	lsls	r2, r2, #21
 8003308:	69e3      	ldr	r3, [r4, #28]
    FlagStatus       pwrclkchanged = RESET;
 800330a:	9100      	str	r1, [sp, #0]
    if(__HAL_RCC_PWR_IS_CLK_DISABLED())
 800330c:	4213      	tst	r3, r2
 800330e:	d108      	bne.n	8003322 <HAL_RCC_OscConfig+0x206>
      __HAL_RCC_PWR_CLK_ENABLE();
 8003310:	69e3      	ldr	r3, [r4, #28]
 8003312:	4313      	orrs	r3, r2
 8003314:	61e3      	str	r3, [r4, #28]
 8003316:	69e3      	ldr	r3, [r4, #28]
 8003318:	4013      	ands	r3, r2
 800331a:	9303      	str	r3, [sp, #12]
 800331c:	9b03      	ldr	r3, [sp, #12]
      pwrclkchanged = SET;
 800331e:	2301      	movs	r3, #1
 8003320:	9300      	str	r3, [sp, #0]
    if(HAL_IS_BIT_CLR(PWR->CR, PWR_CR_DBP))
 8003322:	2780      	movs	r7, #128	; 0x80
 8003324:	4e41      	ldr	r6, [pc, #260]	; (800342c <HAL_RCC_OscConfig+0x310>)
 8003326:	007f      	lsls	r7, r7, #1
 8003328:	6833      	ldr	r3, [r6, #0]
 800332a:	423b      	tst	r3, r7
 800332c:	d006      	beq.n	800333c <HAL_RCC_OscConfig+0x220>
    __HAL_RCC_LSE_CONFIG(RCC_OscInitStruct->LSEState);
 800332e:	68ab      	ldr	r3, [r5, #8]
 8003330:	2b01      	cmp	r3, #1
 8003332:	d113      	bne.n	800335c <HAL_RCC_OscConfig+0x240>
 8003334:	6a22      	ldr	r2, [r4, #32]
 8003336:	4313      	orrs	r3, r2
 8003338:	6223      	str	r3, [r4, #32]
 800333a:	e030      	b.n	800339e <HAL_RCC_OscConfig+0x282>
      SET_BIT(PWR->CR, PWR_CR_DBP);
 800333c:	6833      	ldr	r3, [r6, #0]
 800333e:	433b      	orrs	r3, r7
 8003340:	6033      	str	r3, [r6, #0]
      tickstart = HAL_GetTick();
 8003342:	f7ff fad5 	bl	80028f0 <HAL_GetTick>
 8003346:	9001      	str	r0, [sp, #4]
      while(HAL_IS_BIT_CLR(PWR->CR, PWR_CR_DBP))
 8003348:	6833      	ldr	r3, [r6, #0]
 800334a:	423b      	tst	r3, r7
 800334c:	d1ef      	bne.n	800332e <HAL_RCC_OscConfig+0x212>
        if((HAL_GetTick() - tickstart) > RCC_DBP_TIMEOUT_VALUE)
 800334e:	f7ff facf 	bl	80028f0 <HAL_GetTick>
 8003352:	9b01      	ldr	r3, [sp, #4]
 8003354:	1ac0      	subs	r0, r0, r3
 8003356:	2864      	cmp	r0, #100	; 0x64
 8003358:	d9f6      	bls.n	8003348 <HAL_RCC_OscConfig+0x22c>
 800335a:	e740      	b.n	80031de <HAL_RCC_OscConfig+0xc2>
 800335c:	2201      	movs	r2, #1
    __HAL_RCC_LSE_CONFIG(RCC_OscInitStruct->LSEState);
 800335e:	2b00      	cmp	r3, #0
 8003360:	d114      	bne.n	800338c <HAL_RCC_OscConfig+0x270>
 8003362:	6a23      	ldr	r3, [r4, #32]
      while(__HAL_RCC_GET_FLAG(RCC_FLAG_LSERDY) != RESET)
 8003364:	2702      	movs	r7, #2
    __HAL_RCC_LSE_CONFIG(RCC_OscInitStruct->LSEState);
 8003366:	4393      	bics	r3, r2
 8003368:	6223      	str	r3, [r4, #32]
 800336a:	6a23      	ldr	r3, [r4, #32]
 800336c:	3203      	adds	r2, #3
 800336e:	4393      	bics	r3, r2
 8003370:	6223      	str	r3, [r4, #32]
      tickstart = HAL_GetTick();
 8003372:	f7ff fabd 	bl	80028f0 <HAL_GetTick>
 8003376:	0006      	movs	r6, r0
      while(__HAL_RCC_GET_FLAG(RCC_FLAG_LSERDY) != RESET)
 8003378:	6a23      	ldr	r3, [r4, #32]
 800337a:	423b      	tst	r3, r7
 800337c:	d025      	beq.n	80033ca <HAL_RCC_OscConfig+0x2ae>
        if((HAL_GetTick() - tickstart ) > RCC_LSE_TIMEOUT_VALUE)
 800337e:	f7ff fab7 	bl	80028f0 <HAL_GetTick>
 8003382:	4b2b      	ldr	r3, [pc, #172]	; (8003430 <HAL_RCC_OscConfig+0x314>)
 8003384:	1b80      	subs	r0, r0, r6
 8003386:	4298      	cmp	r0, r3
 8003388:	d9f6      	bls.n	8003378 <HAL_RCC_OscConfig+0x25c>
 800338a:	e728      	b.n	80031de <HAL_RCC_OscConfig+0xc2>
    __HAL_RCC_LSE_CONFIG(RCC_OscInitStruct->LSEState);
 800338c:	2b05      	cmp	r3, #5
 800338e:	d10b      	bne.n	80033a8 <HAL_RCC_OscConfig+0x28c>
 8003390:	6a21      	ldr	r1, [r4, #32]
 8003392:	3b01      	subs	r3, #1
 8003394:	430b      	orrs	r3, r1
 8003396:	6223      	str	r3, [r4, #32]
 8003398:	6a23      	ldr	r3, [r4, #32]
 800339a:	431a      	orrs	r2, r3
 800339c:	6222      	str	r2, [r4, #32]
      tickstart = HAL_GetTick();
 800339e:	f7ff faa7 	bl	80028f0 <HAL_GetTick>
      while(__HAL_RCC_GET_FLAG(RCC_FLAG_LSERDY) == RESET)
 80033a2:	2702      	movs	r7, #2
      tickstart = HAL_GetTick();
 80033a4:	0006      	movs	r6, r0
      while(__HAL_RCC_GET_FLAG(RCC_FLAG_LSERDY) == RESET)
 80033a6:	e00d      	b.n	80033c4 <HAL_RCC_OscConfig+0x2a8>
    __HAL_RCC_LSE_CONFIG(RCC_OscInitStruct->LSEState);
 80033a8:	6a23      	ldr	r3, [r4, #32]
 80033aa:	4393      	bics	r3, r2
 80033ac:	2204      	movs	r2, #4
 80033ae:	6223      	str	r3, [r4, #32]
 80033b0:	6a23      	ldr	r3, [r4, #32]
 80033b2:	4393      	bics	r3, r2
 80033b4:	e7c0      	b.n	8003338 <HAL_RCC_OscConfig+0x21c>
        if((HAL_GetTick() - tickstart ) > RCC_LSE_TIMEOUT_VALUE)
 80033b6:	f7ff fa9b 	bl	80028f0 <HAL_GetTick>
 80033ba:	4b1d      	ldr	r3, [pc, #116]	; (8003430 <HAL_RCC_OscConfig+0x314>)
 80033bc:	1b80      	subs	r0, r0, r6
 80033be:	4298      	cmp	r0, r3
 80033c0:	d900      	bls.n	80033c4 <HAL_RCC_OscConfig+0x2a8>
 80033c2:	e70c      	b.n	80031de <HAL_RCC_OscConfig+0xc2>
      while(__HAL_RCC_GET_FLAG(RCC_FLAG_LSERDY) == RESET)
 80033c4:	6a23      	ldr	r3, [r4, #32]
 80033c6:	423b      	tst	r3, r7
 80033c8:	d0f5      	beq.n	80033b6 <HAL_RCC_OscConfig+0x29a>
    if(pwrclkchanged == SET)
 80033ca:	9b00      	ldr	r3, [sp, #0]
 80033cc:	2b01      	cmp	r3, #1
 80033ce:	d000      	beq.n	80033d2 <HAL_RCC_OscConfig+0x2b6>
 80033d0:	e6b6      	b.n	8003140 <HAL_RCC_OscConfig+0x24>
      __HAL_RCC_PWR_CLK_DISABLE();
 80033d2:	69e3      	ldr	r3, [r4, #28]
 80033d4:	4a17      	ldr	r2, [pc, #92]	; (8003434 <HAL_RCC_OscConfig+0x318>)
 80033d6:	4013      	ands	r3, r2
 80033d8:	61e3      	str	r3, [r4, #28]
 80033da:	e6b1      	b.n	8003140 <HAL_RCC_OscConfig+0x24>
        if((HAL_GetTick() - tickstart) > HSI14_TIMEOUT_VALUE)
 80033dc:	f7ff fa88 	bl	80028f0 <HAL_GetTick>
 80033e0:	1bc0      	subs	r0, r0, r7
 80033e2:	2802      	cmp	r0, #2
 80033e4:	d800      	bhi.n	80033e8 <HAL_RCC_OscConfig+0x2cc>
 80033e6:	e6be      	b.n	8003166 <HAL_RCC_OscConfig+0x4a>
 80033e8:	e6f9      	b.n	80031de <HAL_RCC_OscConfig+0xc2>
    else if(RCC_OscInitStruct->HSI14State == RCC_HSI14_ADC_CONTROL)
 80033ea:	3205      	adds	r2, #5
 80033ec:	d103      	bne.n	80033f6 <HAL_RCC_OscConfig+0x2da>
      __HAL_RCC_HSI14ADC_ENABLE();
 80033ee:	6b62      	ldr	r2, [r4, #52]	; 0x34
 80033f0:	439a      	bics	r2, r3
 80033f2:	6362      	str	r2, [r4, #52]	; 0x34
 80033f4:	e6bb      	b.n	800316e <HAL_RCC_OscConfig+0x52>
      __HAL_RCC_HSI14ADC_DISABLE();
 80033f6:	6b62      	ldr	r2, [r4, #52]	; 0x34
      while(__HAL_RCC_GET_FLAG(RCC_FLAG_HSI14RDY) != RESET)
 80033f8:	2602      	movs	r6, #2
      __HAL_RCC_HSI14ADC_DISABLE();
 80033fa:	4313      	orrs	r3, r2
      __HAL_RCC_HSI14_DISABLE();
 80033fc:	2201      	movs	r2, #1
      __HAL_RCC_HSI14ADC_DISABLE();
 80033fe:	6363      	str	r3, [r4, #52]	; 0x34
      __HAL_RCC_HSI14_DISABLE();
 8003400:	6b63      	ldr	r3, [r4, #52]	; 0x34
 8003402:	4393      	bics	r3, r2
 8003404:	6363      	str	r3, [r4, #52]	; 0x34
      tickstart = HAL_GetTick();
 8003406:	f7ff fa73 	bl	80028f0 <HAL_GetTick>
 800340a:	0007      	movs	r7, r0
      while(__HAL_RCC_GET_FLAG(RCC_FLAG_HSI14RDY) != RESET)
 800340c:	6b63      	ldr	r3, [r4, #52]	; 0x34
 800340e:	4233      	tst	r3, r6
 8003410:	d100      	bne.n	8003414 <HAL_RCC_OscConfig+0x2f8>
 8003412:	e6b3      	b.n	800317c <HAL_RCC_OscConfig+0x60>
        if((HAL_GetTick() - tickstart) > HSI14_TIMEOUT_VALUE)
 8003414:	f7ff fa6c 	bl	80028f0 <HAL_GetTick>
 8003418:	1bc0      	subs	r0, r0, r7
 800341a:	2802      	cmp	r0, #2
 800341c:	d9f6      	bls.n	800340c <HAL_RCC_OscConfig+0x2f0>
 800341e:	e6de      	b.n	80031de <HAL_RCC_OscConfig+0xc2>
 8003420:	40021000 	.word	0x40021000
 8003424:	fffeffff 	.word	0xfffeffff
 8003428:	fffbffff 	.word	0xfffbffff
 800342c:	40007000 	.word	0x40007000
 8003430:	00001388 	.word	0x00001388
 8003434:	efffffff 	.word	0xefffffff
    if(__HAL_RCC_GET_SYSCLK_SOURCE() != RCC_SYSCLKSOURCE_STATUS_PLLCLK)
 8003438:	220c      	movs	r2, #12
 800343a:	4c26      	ldr	r4, [pc, #152]	; (80034d4 <HAL_RCC_OscConfig+0x3b8>)
      return HAL_ERROR;
 800343c:	2001      	movs	r0, #1
    if(__HAL_RCC_GET_SYSCLK_SOURCE() != RCC_SYSCLKSOURCE_STATUS_PLLCLK)
 800343e:	6863      	ldr	r3, [r4, #4]
 8003440:	4013      	ands	r3, r2
 8003442:	2b08      	cmp	r3, #8
 8003444:	d100      	bne.n	8003448 <HAL_RCC_OscConfig+0x32c>
 8003446:	e6b3      	b.n	80031b0 <HAL_RCC_OscConfig+0x94>
        __HAL_RCC_PLL_DISABLE();
 8003448:	6823      	ldr	r3, [r4, #0]
 800344a:	4a23      	ldr	r2, [pc, #140]	; (80034d8 <HAL_RCC_OscConfig+0x3bc>)
 800344c:	4013      	ands	r3, r2
 800344e:	6023      	str	r3, [r4, #0]
      if((RCC_OscInitStruct->PLL.PLLState) == RCC_PLL_ON)
 8003450:	2902      	cmp	r1, #2
 8003452:	d12f      	bne.n	80034b4 <HAL_RCC_OscConfig+0x398>
        tickstart = HAL_GetTick();
 8003454:	f7ff fa4c 	bl	80028f0 <HAL_GetTick>
        while(__HAL_RCC_GET_FLAG(RCC_FLAG_PLLRDY)  != RESET)
 8003458:	2680      	movs	r6, #128	; 0x80
        tickstart = HAL_GetTick();
 800345a:	0007      	movs	r7, r0
        while(__HAL_RCC_GET_FLAG(RCC_FLAG_PLLRDY)  != RESET)
 800345c:	04b6      	lsls	r6, r6, #18
 800345e:	6823      	ldr	r3, [r4, #0]
 8003460:	4233      	tst	r3, r6
 8003462:	d121      	bne.n	80034a8 <HAL_RCC_OscConfig+0x38c>
        __HAL_RCC_PLL_CONFIG(RCC_OscInitStruct->PLL.PLLSource,
 8003464:	220f      	movs	r2, #15
 8003466:	6ae3      	ldr	r3, [r4, #44]	; 0x2c
 8003468:	4393      	bics	r3, r2
 800346a:	6aea      	ldr	r2, [r5, #44]	; 0x2c
 800346c:	4313      	orrs	r3, r2
 800346e:	62e3      	str	r3, [r4, #44]	; 0x2c
 8003470:	6a69      	ldr	r1, [r5, #36]	; 0x24
 8003472:	6aab      	ldr	r3, [r5, #40]	; 0x28
 8003474:	6862      	ldr	r2, [r4, #4]
 8003476:	430b      	orrs	r3, r1
 8003478:	4918      	ldr	r1, [pc, #96]	; (80034dc <HAL_RCC_OscConfig+0x3c0>)
        while(__HAL_RCC_GET_FLAG(RCC_FLAG_PLLRDY)  == RESET)
 800347a:	2580      	movs	r5, #128	; 0x80
        __HAL_RCC_PLL_CONFIG(RCC_OscInitStruct->PLL.PLLSource,
 800347c:	400a      	ands	r2, r1
 800347e:	4313      	orrs	r3, r2
 8003480:	6063      	str	r3, [r4, #4]
        __HAL_RCC_PLL_ENABLE();
 8003482:	2380      	movs	r3, #128	; 0x80
 8003484:	6822      	ldr	r2, [r4, #0]
 8003486:	045b      	lsls	r3, r3, #17
 8003488:	4313      	orrs	r3, r2
 800348a:	6023      	str	r3, [r4, #0]
        tickstart = HAL_GetTick();
 800348c:	f7ff fa30 	bl	80028f0 <HAL_GetTick>
 8003490:	0006      	movs	r6, r0
        while(__HAL_RCC_GET_FLAG(RCC_FLAG_PLLRDY)  == RESET)
 8003492:	04ad      	lsls	r5, r5, #18
 8003494:	6823      	ldr	r3, [r4, #0]
 8003496:	422b      	tst	r3, r5
 8003498:	d000      	beq.n	800349c <HAL_RCC_OscConfig+0x380>
 800349a:	e673      	b.n	8003184 <HAL_RCC_OscConfig+0x68>
          if((HAL_GetTick() - tickstart ) > PLL_TIMEOUT_VALUE)
 800349c:	f7ff fa28 	bl	80028f0 <HAL_GetTick>
 80034a0:	1b80      	subs	r0, r0, r6
 80034a2:	2802      	cmp	r0, #2
 80034a4:	d9f6      	bls.n	8003494 <HAL_RCC_OscConfig+0x378>
 80034a6:	e69a      	b.n	80031de <HAL_RCC_OscConfig+0xc2>
          if((HAL_GetTick() - tickstart ) > PLL_TIMEOUT_VALUE)
 80034a8:	f7ff fa22 	bl	80028f0 <HAL_GetTick>
 80034ac:	1bc0      	subs	r0, r0, r7
 80034ae:	2802      	cmp	r0, #2
 80034b0:	d9d5      	bls.n	800345e <HAL_RCC_OscConfig+0x342>
 80034b2:	e694      	b.n	80031de <HAL_RCC_OscConfig+0xc2>
        tickstart = HAL_GetTick();
 80034b4:	f7ff fa1c 	bl	80028f0 <HAL_GetTick>
        while(__HAL_RCC_GET_FLAG(RCC_FLAG_PLLRDY)  != RESET)
 80034b8:	2580      	movs	r5, #128	; 0x80
        tickstart = HAL_GetTick();
 80034ba:	0006      	movs	r6, r0
        while(__HAL_RCC_GET_FLAG(RCC_FLAG_PLLRDY)  != RESET)
 80034bc:	04ad      	lsls	r5, r5, #18
 80034be:	6823      	ldr	r3, [r4, #0]
 80034c0:	422b      	tst	r3, r5
 80034c2:	d100      	bne.n	80034c6 <HAL_RCC_OscConfig+0x3aa>
 80034c4:	e65e      	b.n	8003184 <HAL_RCC_OscConfig+0x68>
          if((HAL_GetTick() - tickstart ) > PLL_TIMEOUT_VALUE)
 80034c6:	f7ff fa13 	bl	80028f0 <HAL_GetTick>
 80034ca:	1b80      	subs	r0, r0, r6
 80034cc:	2802      	cmp	r0, #2
 80034ce:	d9f6      	bls.n	80034be <HAL_RCC_OscConfig+0x3a2>
 80034d0:	e685      	b.n	80031de <HAL_RCC_OscConfig+0xc2>
 80034d2:	46c0      	nop			; (mov r8, r8)
 80034d4:	40021000 	.word	0x40021000
 80034d8:	feffffff 	.word	0xfeffffff
 80034dc:	ffc2ffff 	.word	0xffc2ffff

080034e0 <HAL_RCC_GetSysClockFreq>:
  *         right SYSCLK value. Otherwise, any configuration based on this function will be incorrect.
  *         
  * @retval SYSCLK frequency
  */
uint32_t HAL_RCC_GetSysClockFreq(void)
{
 80034e0:	b570      	push	{r4, r5, r6, lr}
  const uint8_t aPLLMULFactorTable[16] = { 2U,  3U,  4U,  5U,  6U,  7U,  8U,  9U,
 80034e2:	4c14      	ldr	r4, [pc, #80]	; (8003534 <HAL_RCC_GetSysClockFreq+0x54>)
{
 80034e4:	b088      	sub	sp, #32
  const uint8_t aPLLMULFactorTable[16] = { 2U,  3U,  4U,  5U,  6U,  7U,  8U,  9U,
 80034e6:	2210      	movs	r2, #16
 80034e8:	0021      	movs	r1, r4
 80034ea:	4668      	mov	r0, sp
 80034ec:	f000 fbce 	bl	8003c8c <memcpy>
                                         10U, 11U, 12U, 13U, 14U, 15U, 16U, 16U};
  const uint8_t aPredivFactorTable[16] = { 1U, 2U,  3U,  4U,  5U,  6U,  7U,  8U,
 80034f0:	0021      	movs	r1, r4
 80034f2:	ad04      	add	r5, sp, #16
 80034f4:	2210      	movs	r2, #16
 80034f6:	3110      	adds	r1, #16
 80034f8:	0028      	movs	r0, r5
 80034fa:	f000 fbc7 	bl	8003c8c <memcpy>
  uint32_t sysclockfreq = 0U;
  
  tmpreg = RCC->CFGR;
  
  /* Get SYSCLK source -------------------------------------------------------*/
  switch (tmpreg & RCC_CFGR_SWS)
 80034fe:	220c      	movs	r2, #12
  tmpreg = RCC->CFGR;
 8003500:	4e0d      	ldr	r6, [pc, #52]	; (8003538 <HAL_RCC_GetSysClockFreq+0x58>)
 8003502:	6873      	ldr	r3, [r6, #4]
  switch (tmpreg & RCC_CFGR_SWS)
 8003504:	401a      	ands	r2, r3
 8003506:	2a08      	cmp	r2, #8
 8003508:	d111      	bne.n	800352e <HAL_RCC_GetSysClockFreq+0x4e>
      sysclockfreq = HSE_VALUE;
      break;
    }
    case RCC_SYSCLKSOURCE_STATUS_PLLCLK:  /* PLL used as system clock */
    {
      pllmul = aPLLMULFactorTable[(uint32_t)(tmpreg & RCC_CFGR_PLLMUL) >> RCC_CFGR_PLLMUL_BITNUMBER];
 800350a:	200f      	movs	r0, #15
 800350c:	466a      	mov	r2, sp
 800350e:	0c99      	lsrs	r1, r3, #18
 8003510:	4001      	ands	r1, r0
 8003512:	5c54      	ldrb	r4, [r2, r1]
      prediv = aPredivFactorTable[(uint32_t)(RCC->CFGR2 & RCC_CFGR2_PREDIV) >> RCC_CFGR2_PREDIV_BITNUMBER];
 8003514:	6af2      	ldr	r2, [r6, #44]	; 0x2c
 8003516:	4002      	ands	r2, r0
 8003518:	5ca9      	ldrb	r1, [r5, r2]
      if ((tmpreg & RCC_CFGR_PLLSRC) == RCC_PLLSOURCE_HSE)
 800351a:	03db      	lsls	r3, r3, #15
 800351c:	d505      	bpl.n	800352a <HAL_RCC_GetSysClockFreq+0x4a>
      {
        /* HSE used as PLL clock source : PLLCLK = HSE/PREDIV * PLLMUL */
        pllclk = (HSE_VALUE / prediv) * pllmul;
 800351e:	4807      	ldr	r0, [pc, #28]	; (800353c <HAL_RCC_GetSysClockFreq+0x5c>)
 8003520:	f7fc fdf2 	bl	8000108 <__udivsi3>
#if  (defined(STM32F042x6) || defined(STM32F048xx) || defined(STM32F070x6) || defined(STM32F071xB) || defined(STM32F072xB) || defined(STM32F078xx) || defined(STM32F070xB) || defined(STM32F091xC) || defined(STM32F098xx) || defined(STM32F030xC))
        /* HSI used as PLL clock source : PLLCLK = HSI/PREDIV * PLLMUL */
        pllclk = (HSI_VALUE / prediv) * pllmul;
#else
        /* HSI used as PLL clock source : PLLCLK = HSI/2 * PLLMUL */
        pllclk = (uint32_t)((HSI_VALUE >> 1U) * pllmul);
 8003524:	4360      	muls	r0, r4
      sysclockfreq = HSI_VALUE;
      break;
    }
  }
  return sysclockfreq;
}
 8003526:	b008      	add	sp, #32
 8003528:	bd70      	pop	{r4, r5, r6, pc}
        pllclk = (uint32_t)((HSI_VALUE >> 1U) * pllmul);
 800352a:	4805      	ldr	r0, [pc, #20]	; (8003540 <HAL_RCC_GetSysClockFreq+0x60>)
 800352c:	e7fa      	b.n	8003524 <HAL_RCC_GetSysClockFreq+0x44>
      sysclockfreq = HSE_VALUE;
 800352e:	4803      	ldr	r0, [pc, #12]	; (800353c <HAL_RCC_GetSysClockFreq+0x5c>)
  return sysclockfreq;
 8003530:	e7f9      	b.n	8003526 <HAL_RCC_GetSysClockFreq+0x46>
 8003532:	46c0      	nop			; (mov r8, r8)
 8003534:	08004140 	.word	0x08004140
 8003538:	40021000 	.word	0x40021000
 800353c:	007a1200 	.word	0x007a1200
 8003540:	003d0900 	.word	0x003d0900

08003544 <HAL_RCC_ClockConfig>:
{
 8003544:	b5f7      	push	{r0, r1, r2, r4, r5, r6, r7, lr}
  if(FLatency > (FLASH->ACR & FLASH_ACR_LATENCY))
 8003546:	2201      	movs	r2, #1
 8003548:	4c43      	ldr	r4, [pc, #268]	; (8003658 <HAL_RCC_ClockConfig+0x114>)
{
 800354a:	0006      	movs	r6, r0
  if(FLatency > (FLASH->ACR & FLASH_ACR_LATENCY))
 800354c:	6823      	ldr	r3, [r4, #0]
{
 800354e:	000f      	movs	r7, r1
  if(FLatency > (FLASH->ACR & FLASH_ACR_LATENCY))
 8003550:	4013      	ands	r3, r2
 8003552:	428b      	cmp	r3, r1
 8003554:	d31c      	bcc.n	8003590 <HAL_RCC_ClockConfig+0x4c>
  if(((RCC_ClkInitStruct->ClockType) & RCC_CLOCKTYPE_HCLK) == RCC_CLOCKTYPE_HCLK)
 8003556:	6832      	ldr	r2, [r6, #0]
 8003558:	0793      	lsls	r3, r2, #30
 800355a:	d423      	bmi.n	80035a4 <HAL_RCC_ClockConfig+0x60>
  if(((RCC_ClkInitStruct->ClockType) & RCC_CLOCKTYPE_SYSCLK) == RCC_CLOCKTYPE_SYSCLK)
 800355c:	07d3      	lsls	r3, r2, #31
 800355e:	d429      	bmi.n	80035b4 <HAL_RCC_ClockConfig+0x70>
  if(FLatency < (FLASH->ACR & FLASH_ACR_LATENCY))
 8003560:	2301      	movs	r3, #1
 8003562:	6822      	ldr	r2, [r4, #0]
 8003564:	401a      	ands	r2, r3
 8003566:	4297      	cmp	r7, r2
 8003568:	d367      	bcc.n	800363a <HAL_RCC_ClockConfig+0xf6>
  if(((RCC_ClkInitStruct->ClockType) & RCC_CLOCKTYPE_PCLK1) == RCC_CLOCKTYPE_PCLK1)
 800356a:	6833      	ldr	r3, [r6, #0]
 800356c:	4c3b      	ldr	r4, [pc, #236]	; (800365c <HAL_RCC_ClockConfig+0x118>)
 800356e:	075b      	lsls	r3, r3, #29
 8003570:	d46a      	bmi.n	8003648 <HAL_RCC_ClockConfig+0x104>
  SystemCoreClock = HAL_RCC_GetSysClockFreq() >> AHBPrescTable[(RCC->CFGR & RCC_CFGR_HPRE)>> RCC_CFGR_HPRE_BITNUMBER];
 8003572:	f7ff ffb5 	bl	80034e0 <HAL_RCC_GetSysClockFreq>
 8003576:	6863      	ldr	r3, [r4, #4]
 8003578:	4a39      	ldr	r2, [pc, #228]	; (8003660 <HAL_RCC_ClockConfig+0x11c>)
 800357a:	061b      	lsls	r3, r3, #24
 800357c:	0f1b      	lsrs	r3, r3, #28
 800357e:	5cd3      	ldrb	r3, [r2, r3]
 8003580:	40d8      	lsrs	r0, r3
 8003582:	4b38      	ldr	r3, [pc, #224]	; (8003664 <HAL_RCC_ClockConfig+0x120>)
 8003584:	6018      	str	r0, [r3, #0]
  HAL_InitTick (TICK_INT_PRIORITY);
 8003586:	2000      	movs	r0, #0
 8003588:	f7ff f988 	bl	800289c <HAL_InitTick>
  return HAL_OK;
 800358c:	2000      	movs	r0, #0
 800358e:	e008      	b.n	80035a2 <HAL_RCC_ClockConfig+0x5e>
    __HAL_FLASH_SET_LATENCY(FLatency);
 8003590:	6823      	ldr	r3, [r4, #0]
 8003592:	4393      	bics	r3, r2
 8003594:	430b      	orrs	r3, r1
 8003596:	6023      	str	r3, [r4, #0]
    if((FLASH->ACR & FLASH_ACR_LATENCY) != FLatency)
 8003598:	6823      	ldr	r3, [r4, #0]
 800359a:	4013      	ands	r3, r2
 800359c:	4299      	cmp	r1, r3
 800359e:	d0da      	beq.n	8003556 <HAL_RCC_ClockConfig+0x12>
      return HAL_ERROR;
 80035a0:	2001      	movs	r0, #1
}
 80035a2:	bdfe      	pop	{r1, r2, r3, r4, r5, r6, r7, pc}
    MODIFY_REG(RCC->CFGR, RCC_CFGR_HPRE, RCC_ClkInitStruct->AHBCLKDivider);
 80035a4:	20f0      	movs	r0, #240	; 0xf0
 80035a6:	492d      	ldr	r1, [pc, #180]	; (800365c <HAL_RCC_ClockConfig+0x118>)
 80035a8:	684b      	ldr	r3, [r1, #4]
 80035aa:	4383      	bics	r3, r0
 80035ac:	68b0      	ldr	r0, [r6, #8]
 80035ae:	4303      	orrs	r3, r0
 80035b0:	604b      	str	r3, [r1, #4]
 80035b2:	e7d3      	b.n	800355c <HAL_RCC_ClockConfig+0x18>
 80035b4:	4d29      	ldr	r5, [pc, #164]	; (800365c <HAL_RCC_ClockConfig+0x118>)
    if(RCC_ClkInitStruct->SYSCLKSource == RCC_SYSCLKSOURCE_HSE)
 80035b6:	6872      	ldr	r2, [r6, #4]
      if(__HAL_RCC_GET_FLAG(RCC_FLAG_HSERDY) == RESET)
 80035b8:	682b      	ldr	r3, [r5, #0]
    if(RCC_ClkInitStruct->SYSCLKSource == RCC_SYSCLKSOURCE_HSE)
 80035ba:	2a01      	cmp	r2, #1
 80035bc:	d11a      	bne.n	80035f4 <HAL_RCC_ClockConfig+0xb0>
      if(__HAL_RCC_GET_FLAG(RCC_FLAG_HSERDY) == RESET)
 80035be:	039b      	lsls	r3, r3, #14
 80035c0:	d5ee      	bpl.n	80035a0 <HAL_RCC_ClockConfig+0x5c>
    __HAL_RCC_SYSCLK_CONFIG(RCC_ClkInitStruct->SYSCLKSource);
 80035c2:	2103      	movs	r1, #3
 80035c4:	686b      	ldr	r3, [r5, #4]
 80035c6:	438b      	bics	r3, r1
 80035c8:	4313      	orrs	r3, r2
 80035ca:	606b      	str	r3, [r5, #4]
    tickstart = HAL_GetTick();
 80035cc:	f7ff f990 	bl	80028f0 <HAL_GetTick>
    if(RCC_ClkInitStruct->SYSCLKSource == RCC_SYSCLKSOURCE_HSE)
 80035d0:	6873      	ldr	r3, [r6, #4]
    tickstart = HAL_GetTick();
 80035d2:	9001      	str	r0, [sp, #4]
    if(RCC_ClkInitStruct->SYSCLKSource == RCC_SYSCLKSOURCE_HSE)
 80035d4:	2b01      	cmp	r3, #1
 80035d6:	d115      	bne.n	8003604 <HAL_RCC_ClockConfig+0xc0>
      while (__HAL_RCC_GET_SYSCLK_SOURCE() != RCC_SYSCLKSOURCE_STATUS_HSE)
 80035d8:	220c      	movs	r2, #12
 80035da:	686b      	ldr	r3, [r5, #4]
 80035dc:	4013      	ands	r3, r2
 80035de:	2b04      	cmp	r3, #4
 80035e0:	d0be      	beq.n	8003560 <HAL_RCC_ClockConfig+0x1c>
        if((HAL_GetTick() - tickstart ) > CLOCKSWITCH_TIMEOUT_VALUE)
 80035e2:	f7ff f985 	bl	80028f0 <HAL_GetTick>
 80035e6:	9b01      	ldr	r3, [sp, #4]
 80035e8:	1ac0      	subs	r0, r0, r3
 80035ea:	4b1f      	ldr	r3, [pc, #124]	; (8003668 <HAL_RCC_ClockConfig+0x124>)
 80035ec:	4298      	cmp	r0, r3
 80035ee:	d9f3      	bls.n	80035d8 <HAL_RCC_ClockConfig+0x94>
          return HAL_TIMEOUT;
 80035f0:	2003      	movs	r0, #3
 80035f2:	e7d6      	b.n	80035a2 <HAL_RCC_ClockConfig+0x5e>
    else if(RCC_ClkInitStruct->SYSCLKSource == RCC_SYSCLKSOURCE_PLLCLK)
 80035f4:	2a02      	cmp	r2, #2
 80035f6:	d102      	bne.n	80035fe <HAL_RCC_ClockConfig+0xba>
      if(__HAL_RCC_GET_FLAG(RCC_FLAG_PLLRDY) == RESET)
 80035f8:	019b      	lsls	r3, r3, #6
 80035fa:	d4e2      	bmi.n	80035c2 <HAL_RCC_ClockConfig+0x7e>
 80035fc:	e7d0      	b.n	80035a0 <HAL_RCC_ClockConfig+0x5c>
      if(__HAL_RCC_GET_FLAG(RCC_FLAG_HSIRDY) == RESET)
 80035fe:	079b      	lsls	r3, r3, #30
 8003600:	d4df      	bmi.n	80035c2 <HAL_RCC_ClockConfig+0x7e>
 8003602:	e7cd      	b.n	80035a0 <HAL_RCC_ClockConfig+0x5c>
    else if(RCC_ClkInitStruct->SYSCLKSource == RCC_SYSCLKSOURCE_PLLCLK)
 8003604:	2b02      	cmp	r3, #2
 8003606:	d012      	beq.n	800362e <HAL_RCC_ClockConfig+0xea>
      while (__HAL_RCC_GET_SYSCLK_SOURCE() != RCC_SYSCLKSOURCE_STATUS_HSI)
 8003608:	220c      	movs	r2, #12
 800360a:	686b      	ldr	r3, [r5, #4]
 800360c:	4213      	tst	r3, r2
 800360e:	d0a7      	beq.n	8003560 <HAL_RCC_ClockConfig+0x1c>
        if((HAL_GetTick() - tickstart ) > CLOCKSWITCH_TIMEOUT_VALUE)
 8003610:	f7ff f96e 	bl	80028f0 <HAL_GetTick>
 8003614:	9b01      	ldr	r3, [sp, #4]
 8003616:	1ac0      	subs	r0, r0, r3
 8003618:	4b13      	ldr	r3, [pc, #76]	; (8003668 <HAL_RCC_ClockConfig+0x124>)
 800361a:	4298      	cmp	r0, r3
 800361c:	d9f4      	bls.n	8003608 <HAL_RCC_ClockConfig+0xc4>
 800361e:	e7e7      	b.n	80035f0 <HAL_RCC_ClockConfig+0xac>
        if((HAL_GetTick() - tickstart ) > CLOCKSWITCH_TIMEOUT_VALUE)
 8003620:	f7ff f966 	bl	80028f0 <HAL_GetTick>
 8003624:	9b01      	ldr	r3, [sp, #4]
 8003626:	1ac0      	subs	r0, r0, r3
 8003628:	4b0f      	ldr	r3, [pc, #60]	; (8003668 <HAL_RCC_ClockConfig+0x124>)
 800362a:	4298      	cmp	r0, r3
 800362c:	d8e0      	bhi.n	80035f0 <HAL_RCC_ClockConfig+0xac>
      while (__HAL_RCC_GET_SYSCLK_SOURCE() != RCC_SYSCLKSOURCE_STATUS_PLLCLK)
 800362e:	220c      	movs	r2, #12
 8003630:	686b      	ldr	r3, [r5, #4]
 8003632:	4013      	ands	r3, r2
 8003634:	2b08      	cmp	r3, #8
 8003636:	d1f3      	bne.n	8003620 <HAL_RCC_ClockConfig+0xdc>
 8003638:	e792      	b.n	8003560 <HAL_RCC_ClockConfig+0x1c>
    __HAL_FLASH_SET_LATENCY(FLatency);
 800363a:	6822      	ldr	r2, [r4, #0]
 800363c:	439a      	bics	r2, r3
 800363e:	6022      	str	r2, [r4, #0]
    if((FLASH->ACR & FLASH_ACR_LATENCY) != FLatency)
 8003640:	6822      	ldr	r2, [r4, #0]
 8003642:	421a      	tst	r2, r3
 8003644:	d1ac      	bne.n	80035a0 <HAL_RCC_ClockConfig+0x5c>
 8003646:	e790      	b.n	800356a <HAL_RCC_ClockConfig+0x26>
    MODIFY_REG(RCC->CFGR, RCC_CFGR_PPRE, RCC_ClkInitStruct->APB1CLKDivider);
 8003648:	6863      	ldr	r3, [r4, #4]
 800364a:	4a08      	ldr	r2, [pc, #32]	; (800366c <HAL_RCC_ClockConfig+0x128>)
 800364c:	4013      	ands	r3, r2
 800364e:	68f2      	ldr	r2, [r6, #12]
 8003650:	4313      	orrs	r3, r2
 8003652:	6063      	str	r3, [r4, #4]
 8003654:	e78d      	b.n	8003572 <HAL_RCC_ClockConfig+0x2e>
 8003656:	46c0      	nop			; (mov r8, r8)
 8003658:	40022000 	.word	0x40022000
 800365c:	40021000 	.word	0x40021000
 8003660:	080042a0 	.word	0x080042a0
 8003664:	2000000c 	.word	0x2000000c
 8003668:	00001388 	.word	0x00001388
 800366c:	fffff8ff 	.word	0xfffff8ff

08003670 <HAL_RCC_GetHCLKFreq>:
  *         and updated within this function
  * @retval HCLK frequency
  */
uint32_t HAL_RCC_GetHCLKFreq(void)
{
  return SystemCoreClock;
 8003670:	4b01      	ldr	r3, [pc, #4]	; (8003678 <HAL_RCC_GetHCLKFreq+0x8>)
 8003672:	6818      	ldr	r0, [r3, #0]
}
 8003674:	4770      	bx	lr
 8003676:	46c0      	nop			; (mov r8, r8)
 8003678:	2000000c 	.word	0x2000000c

0800367c <HAL_RCCEx_PeriphCLKConfig>:
  *         the backup registers) and RCC_BDCR register are set to their reset values.
  *
  * @retval HAL status
  */
HAL_StatusTypeDef HAL_RCCEx_PeriphCLKConfig(RCC_PeriphCLKInitTypeDef  *PeriphClkInit)
{
 800367c:	b5f0      	push	{r4, r5, r6, r7, lr}

  /* Check the parameters */
  assert_param(IS_RCC_PERIPHCLOCK(PeriphClkInit->PeriphClockSelection));
  
  /*---------------------------- RTC configuration -------------------------------*/
  if(((PeriphClkInit->PeriphClockSelection) & RCC_PERIPHCLK_RTC) == (RCC_PERIPHCLK_RTC))
 800367e:	6803      	ldr	r3, [r0, #0]
{
 8003680:	b085      	sub	sp, #20
 8003682:	0005      	movs	r5, r0
  if(((PeriphClkInit->PeriphClockSelection) & RCC_PERIPHCLK_RTC) == (RCC_PERIPHCLK_RTC))
 8003684:	03db      	lsls	r3, r3, #15
 8003686:	d528      	bpl.n	80036da <HAL_RCCEx_PeriphCLKConfig+0x5e>
    FlagStatus       pwrclkchanged = RESET;

    /* As soon as function is called to change RTC clock source, activation of the 
       power domain is done. */
    /* Requires to enable write access to Backup Domain of necessary */
    if(__HAL_RCC_PWR_IS_CLK_DISABLED())
 8003688:	2280      	movs	r2, #128	; 0x80
    FlagStatus       pwrclkchanged = RESET;
 800368a:	2100      	movs	r1, #0
    if(__HAL_RCC_PWR_IS_CLK_DISABLED())
 800368c:	4c3b      	ldr	r4, [pc, #236]	; (800377c <HAL_RCCEx_PeriphCLKConfig+0x100>)
 800368e:	0552      	lsls	r2, r2, #21
 8003690:	69e3      	ldr	r3, [r4, #28]
    FlagStatus       pwrclkchanged = RESET;
 8003692:	9100      	str	r1, [sp, #0]
    if(__HAL_RCC_PWR_IS_CLK_DISABLED())
 8003694:	4213      	tst	r3, r2
 8003696:	d108      	bne.n	80036aa <HAL_RCCEx_PeriphCLKConfig+0x2e>
    {
    __HAL_RCC_PWR_CLK_ENABLE();
 8003698:	69e3      	ldr	r3, [r4, #28]
 800369a:	4313      	orrs	r3, r2
 800369c:	61e3      	str	r3, [r4, #28]
 800369e:	69e3      	ldr	r3, [r4, #28]
 80036a0:	4013      	ands	r3, r2
 80036a2:	9303      	str	r3, [sp, #12]
 80036a4:	9b03      	ldr	r3, [sp, #12]
      pwrclkchanged = SET;
 80036a6:	2301      	movs	r3, #1
 80036a8:	9300      	str	r3, [sp, #0]
    }
    
    if(HAL_IS_BIT_CLR(PWR->CR, PWR_CR_DBP))
 80036aa:	2780      	movs	r7, #128	; 0x80
 80036ac:	4e34      	ldr	r6, [pc, #208]	; (8003780 <HAL_RCCEx_PeriphCLKConfig+0x104>)
 80036ae:	007f      	lsls	r7, r7, #1
 80036b0:	6833      	ldr	r3, [r6, #0]
 80036b2:	423b      	tst	r3, r7
 80036b4:	d02f      	beq.n	8003716 <HAL_RCCEx_PeriphCLKConfig+0x9a>
        }
      }
    }
    
    /* Reset the Backup domain only if the RTC Clock source selection is modified from reset value */ 
    temp_reg = (RCC->BDCR & RCC_BDCR_RTCSEL);
 80036b6:	22c0      	movs	r2, #192	; 0xc0
 80036b8:	6a23      	ldr	r3, [r4, #32]
 80036ba:	0092      	lsls	r2, r2, #2
 80036bc:	4013      	ands	r3, r2
 80036be:	4e31      	ldr	r6, [pc, #196]	; (8003784 <HAL_RCCEx_PeriphCLKConfig+0x108>)
    if((temp_reg != 0x00000000U) && (temp_reg != (PeriphClkInit->RTCClockSelection & RCC_BDCR_RTCSEL)))
 80036c0:	d13b      	bne.n	800373a <HAL_RCCEx_PeriphCLKConfig+0xbe>
            return HAL_TIMEOUT;
          }
        }
      }
    }
    __HAL_RCC_RTC_CONFIG(PeriphClkInit->RTCClockSelection);
 80036c2:	6a23      	ldr	r3, [r4, #32]
 80036c4:	401e      	ands	r6, r3
 80036c6:	686b      	ldr	r3, [r5, #4]
 80036c8:	431e      	orrs	r6, r3

    /* Require to disable power clock if necessary */
    if(pwrclkchanged == SET)
 80036ca:	9b00      	ldr	r3, [sp, #0]
    __HAL_RCC_RTC_CONFIG(PeriphClkInit->RTCClockSelection);
 80036cc:	6226      	str	r6, [r4, #32]
    if(pwrclkchanged == SET)
 80036ce:	2b01      	cmp	r3, #1
 80036d0:	d103      	bne.n	80036da <HAL_RCCEx_PeriphCLKConfig+0x5e>
    {
      __HAL_RCC_PWR_CLK_DISABLE();
 80036d2:	69e3      	ldr	r3, [r4, #28]
 80036d4:	4a2c      	ldr	r2, [pc, #176]	; (8003788 <HAL_RCCEx_PeriphCLKConfig+0x10c>)
 80036d6:	4013      	ands	r3, r2
 80036d8:	61e3      	str	r3, [r4, #28]
    }
  }

  /*------------------------------- USART1 Configuration ------------------------*/ 
  if(((PeriphClkInit->PeriphClockSelection) & RCC_PERIPHCLK_USART1) == RCC_PERIPHCLK_USART1)
 80036da:	682a      	ldr	r2, [r5, #0]
 80036dc:	07d3      	lsls	r3, r2, #31
 80036de:	d506      	bpl.n	80036ee <HAL_RCCEx_PeriphCLKConfig+0x72>
  {
    /* Check the parameters */
    assert_param(IS_RCC_USART1CLKSOURCE(PeriphClkInit->Usart1ClockSelection));
    
    /* Configure the USART1 clock source */
    __HAL_RCC_USART1_CONFIG(PeriphClkInit->Usart1ClockSelection);
 80036e0:	2003      	movs	r0, #3
 80036e2:	4926      	ldr	r1, [pc, #152]	; (800377c <HAL_RCCEx_PeriphCLKConfig+0x100>)
 80036e4:	6b0b      	ldr	r3, [r1, #48]	; 0x30
 80036e6:	4383      	bics	r3, r0
 80036e8:	68a8      	ldr	r0, [r5, #8]
 80036ea:	4303      	orrs	r3, r0
 80036ec:	630b      	str	r3, [r1, #48]	; 0x30
    __HAL_RCC_USART3_CONFIG(PeriphClkInit->Usart3ClockSelection);
  }
#endif /* STM32F091xC || STM32F098xx */  

  /*------------------------------ I2C1 Configuration ------------------------*/ 
  if(((PeriphClkInit->PeriphClockSelection) & RCC_PERIPHCLK_I2C1) == RCC_PERIPHCLK_I2C1)
 80036ee:	0693      	lsls	r3, r2, #26
 80036f0:	d506      	bpl.n	8003700 <HAL_RCCEx_PeriphCLKConfig+0x84>
  {
    /* Check the parameters */
    assert_param(IS_RCC_I2C1CLKSOURCE(PeriphClkInit->I2c1ClockSelection));
    
    /* Configure the I2C1 clock source */
    __HAL_RCC_I2C1_CONFIG(PeriphClkInit->I2c1ClockSelection);
 80036f2:	2010      	movs	r0, #16
 80036f4:	4921      	ldr	r1, [pc, #132]	; (800377c <HAL_RCCEx_PeriphCLKConfig+0x100>)
 80036f6:	6b0b      	ldr	r3, [r1, #48]	; 0x30
 80036f8:	4383      	bics	r3, r0
 80036fa:	68e8      	ldr	r0, [r5, #12]
 80036fc:	4303      	orrs	r3, r0
 80036fe:	630b      	str	r3, [r1, #48]	; 0x30
#endif /* STM32F042x6 || STM32F048xx ||                */
       /* STM32F051x8 || STM32F058xx ||                */
       /* STM32F071xB || STM32F072xB || STM32F078xx || */
       /* STM32F091xC || STM32F098xx */
  
  return HAL_OK;
 8003700:	2000      	movs	r0, #0
  if(((PeriphClkInit->PeriphClockSelection) & RCC_PERIPHCLK_CEC) == RCC_PERIPHCLK_CEC)
 8003702:	0553      	lsls	r3, r2, #21
 8003704:	d517      	bpl.n	8003736 <HAL_RCCEx_PeriphCLKConfig+0xba>
    __HAL_RCC_CEC_CONFIG(PeriphClkInit->CecClockSelection);
 8003706:	2140      	movs	r1, #64	; 0x40
 8003708:	4a1c      	ldr	r2, [pc, #112]	; (800377c <HAL_RCCEx_PeriphCLKConfig+0x100>)
 800370a:	6b13      	ldr	r3, [r2, #48]	; 0x30
 800370c:	438b      	bics	r3, r1
 800370e:	6929      	ldr	r1, [r5, #16]
 8003710:	430b      	orrs	r3, r1
 8003712:	6313      	str	r3, [r2, #48]	; 0x30
 8003714:	e00f      	b.n	8003736 <HAL_RCCEx_PeriphCLKConfig+0xba>
      SET_BIT(PWR->CR, PWR_CR_DBP);
 8003716:	6833      	ldr	r3, [r6, #0]
 8003718:	433b      	orrs	r3, r7
 800371a:	6033      	str	r3, [r6, #0]
      tickstart = HAL_GetTick();
 800371c:	f7ff f8e8 	bl	80028f0 <HAL_GetTick>
 8003720:	9001      	str	r0, [sp, #4]
      while(HAL_IS_BIT_CLR(PWR->CR, PWR_CR_DBP))
 8003722:	6833      	ldr	r3, [r6, #0]
 8003724:	423b      	tst	r3, r7
 8003726:	d1c6      	bne.n	80036b6 <HAL_RCCEx_PeriphCLKConfig+0x3a>
        if((HAL_GetTick() - tickstart) > RCC_DBP_TIMEOUT_VALUE)
 8003728:	f7ff f8e2 	bl	80028f0 <HAL_GetTick>
 800372c:	9b01      	ldr	r3, [sp, #4]
 800372e:	1ac0      	subs	r0, r0, r3
 8003730:	2864      	cmp	r0, #100	; 0x64
 8003732:	d9f6      	bls.n	8003722 <HAL_RCCEx_PeriphCLKConfig+0xa6>
          return HAL_TIMEOUT;
 8003734:	2003      	movs	r0, #3
}
 8003736:	b005      	add	sp, #20
 8003738:	bdf0      	pop	{r4, r5, r6, r7, pc}
    if((temp_reg != 0x00000000U) && (temp_reg != (PeriphClkInit->RTCClockSelection & RCC_BDCR_RTCSEL)))
 800373a:	6869      	ldr	r1, [r5, #4]
 800373c:	400a      	ands	r2, r1
 800373e:	4293      	cmp	r3, r2
 8003740:	d0bf      	beq.n	80036c2 <HAL_RCCEx_PeriphCLKConfig+0x46>
      __HAL_RCC_BACKUPRESET_FORCE();
 8003742:	2380      	movs	r3, #128	; 0x80
      temp_reg = (RCC->BDCR & ~(RCC_BDCR_RTCSEL));
 8003744:	6a22      	ldr	r2, [r4, #32]
      __HAL_RCC_BACKUPRESET_FORCE();
 8003746:	6a20      	ldr	r0, [r4, #32]
      temp_reg = (RCC->BDCR & ~(RCC_BDCR_RTCSEL));
 8003748:	0011      	movs	r1, r2
      __HAL_RCC_BACKUPRESET_FORCE();
 800374a:	025b      	lsls	r3, r3, #9
 800374c:	4303      	orrs	r3, r0
 800374e:	6223      	str	r3, [r4, #32]
      __HAL_RCC_BACKUPRESET_RELEASE();
 8003750:	6a23      	ldr	r3, [r4, #32]
 8003752:	480e      	ldr	r0, [pc, #56]	; (800378c <HAL_RCCEx_PeriphCLKConfig+0x110>)
      temp_reg = (RCC->BDCR & ~(RCC_BDCR_RTCSEL));
 8003754:	4031      	ands	r1, r6
      __HAL_RCC_BACKUPRESET_RELEASE();
 8003756:	4003      	ands	r3, r0
 8003758:	6223      	str	r3, [r4, #32]
      RCC->BDCR = temp_reg;
 800375a:	6221      	str	r1, [r4, #32]
      if (HAL_IS_BIT_SET(temp_reg, RCC_BDCR_LSEON))
 800375c:	07d3      	lsls	r3, r2, #31
 800375e:	d5b0      	bpl.n	80036c2 <HAL_RCCEx_PeriphCLKConfig+0x46>
        tickstart = HAL_GetTick();
 8003760:	f7ff f8c6 	bl	80028f0 <HAL_GetTick>
 8003764:	0007      	movs	r7, r0
        while(__HAL_RCC_GET_FLAG(RCC_FLAG_LSERDY) == RESET)
 8003766:	2202      	movs	r2, #2
 8003768:	6a23      	ldr	r3, [r4, #32]
 800376a:	4213      	tst	r3, r2
 800376c:	d1a9      	bne.n	80036c2 <HAL_RCCEx_PeriphCLKConfig+0x46>
          if((HAL_GetTick() - tickstart) > RCC_LSE_TIMEOUT_VALUE)
 800376e:	f7ff f8bf 	bl	80028f0 <HAL_GetTick>
 8003772:	4b07      	ldr	r3, [pc, #28]	; (8003790 <HAL_RCCEx_PeriphCLKConfig+0x114>)
 8003774:	1bc0      	subs	r0, r0, r7
 8003776:	4298      	cmp	r0, r3
 8003778:	d9f5      	bls.n	8003766 <HAL_RCCEx_PeriphCLKConfig+0xea>
 800377a:	e7db      	b.n	8003734 <HAL_RCCEx_PeriphCLKConfig+0xb8>
 800377c:	40021000 	.word	0x40021000
 8003780:	40007000 	.word	0x40007000
 8003784:	fffffcff 	.word	0xfffffcff
 8003788:	efffffff 	.word	0xefffffff
 800378c:	fffeffff 	.word	0xfffeffff
 8003790:	00001388 	.word	0x00001388

08003794 <HMC5883LInit>:
  }
  /* USER CODE END 3 */

}
void HMC5883LInit(void)
{
 8003794:	b5f7      	push	{r0, r1, r2, r4, r5, r6, r7, lr}
		data[0]=0x0B;
 8003796:	230b      	movs	r3, #11
	    data[1]=0x01;
	  	HAL_I2C_Master_Transmit(&hi2c1,devAddress,data,2,1000);
 8003798:	26fa      	movs	r6, #250	; 0xfa
		data[0]=0x0B;
 800379a:	4c10      	ldr	r4, [pc, #64]	; (80037dc <HMC5883LInit+0x48>)
	  	HAL_I2C_Master_Transmit(&hi2c1,devAddress,data,2,1000);
 800379c:	4f10      	ldr	r7, [pc, #64]	; (80037e0 <HMC5883LInit+0x4c>)
 800379e:	4d11      	ldr	r5, [pc, #68]	; (80037e4 <HMC5883LInit+0x50>)
		data[0]=0x0B;
 80037a0:	7023      	strb	r3, [r4, #0]
	  	HAL_I2C_Master_Transmit(&hi2c1,devAddress,data,2,1000);
 80037a2:	00b6      	lsls	r6, r6, #2
	    data[1]=0x01;
 80037a4:	3b0a      	subs	r3, #10
	  	HAL_I2C_Master_Transmit(&hi2c1,devAddress,data,2,1000);
 80037a6:	8839      	ldrh	r1, [r7, #0]
	    data[1]=0x01;
 80037a8:	7063      	strb	r3, [r4, #1]
	  	HAL_I2C_Master_Transmit(&hi2c1,devAddress,data,2,1000);
 80037aa:	0022      	movs	r2, r4
 80037ac:	9600      	str	r6, [sp, #0]
 80037ae:	3301      	adds	r3, #1
 80037b0:	0028      	movs	r0, r5
 80037b2:	f7ff fb39 	bl	8002e28 <HAL_I2C_Master_Transmit>


	  	HAL_Delay(100);
 80037b6:	2064      	movs	r0, #100	; 0x64
 80037b8:	f7ff f8a0 	bl	80028fc <HAL_Delay>

	  	data[0]=0x09;
 80037bc:	2309      	movs	r3, #9
 80037be:	7023      	strb	r3, [r4, #0]
	    data[1]=0x1D;
 80037c0:	3314      	adds	r3, #20
	    HAL_I2C_Master_Transmit(&hi2c1,devAddress,data,2,1000);
 80037c2:	8839      	ldrh	r1, [r7, #0]
	    data[1]=0x1D;
 80037c4:	7063      	strb	r3, [r4, #1]
	    HAL_I2C_Master_Transmit(&hi2c1,devAddress,data,2,1000);
 80037c6:	0022      	movs	r2, r4
 80037c8:	9600      	str	r6, [sp, #0]
 80037ca:	3b1b      	subs	r3, #27
 80037cc:	0028      	movs	r0, r5
 80037ce:	f7ff fb2b 	bl	8002e28 <HAL_I2C_Master_Transmit>

	    HAL_Delay(100);
 80037d2:	2064      	movs	r0, #100	; 0x64
 80037d4:	f7ff f892 	bl	80028fc <HAL_Delay>
}
 80037d8:	bdf7      	pop	{r0, r1, r2, r4, r5, r6, r7, pc}
 80037da:	46c0      	nop			; (mov r8, r8)
 80037dc:	20000090 	.word	0x20000090
 80037e0:	20000008 	.word	0x20000008
 80037e4:	20000038 	.word	0x20000038

080037e8 <HMC5883LRead>:
void HMC5883LRead(void)
{
 80037e8:	b5f7      	push	{r0, r1, r2, r4, r5, r6, r7, lr}
	 	  HAL_I2C_Master_Transmit(&hi2c1,devAddress,&regAddress,1,1000);
 80037ea:	26fa      	movs	r6, #250	; 0xfa
 80037ec:	4f27      	ldr	r7, [pc, #156]	; (800388c <HMC5883LRead+0xa4>)
 80037ee:	4d28      	ldr	r5, [pc, #160]	; (8003890 <HMC5883LRead+0xa8>)
 80037f0:	00b6      	lsls	r6, r6, #2
 80037f2:	8839      	ldrh	r1, [r7, #0]
 80037f4:	2301      	movs	r3, #1
 80037f6:	9600      	str	r6, [sp, #0]
 80037f8:	4a26      	ldr	r2, [pc, #152]	; (8003894 <HMC5883LRead+0xac>)
 80037fa:	0028      	movs	r0, r5
 80037fc:	f7ff fb14 	bl	8002e28 <HAL_I2C_Master_Transmit>
		  HAL_I2C_Master_Receive(&hi2c1,devAddress,data,6,1000);
 8003800:	4c25      	ldr	r4, [pc, #148]	; (8003898 <HMC5883LRead+0xb0>)
 8003802:	8839      	ldrh	r1, [r7, #0]
 8003804:	0022      	movs	r2, r4
 8003806:	9600      	str	r6, [sp, #0]
 8003808:	2306      	movs	r3, #6
 800380a:	0028      	movs	r0, r5
 800380c:	f7ff fba4 	bl	8002f58 <HAL_I2C_Master_Receive>

		  	  X = (int16_t)(data[0] | ((int16_t)data[1] << 8));
 8003810:	7863      	ldrb	r3, [r4, #1]
 8003812:	7820      	ldrb	r0, [r4, #0]
 8003814:	021b      	lsls	r3, r3, #8
 8003816:	4318      	orrs	r0, r3
 8003818:	b200      	sxth	r0, r0
 800381a:	f7fd fa1b 	bl	8000c54 <__aeabi_i2f>
 800381e:	4b1f      	ldr	r3, [pc, #124]	; (800389c <HMC5883LRead+0xb4>)
 8003820:	1c06      	adds	r6, r0, #0
 8003822:	6018      	str	r0, [r3, #0]
		  	  Y = (int16_t)(data[2] | ((int16_t)data[3] << 8));
 8003824:	78e3      	ldrb	r3, [r4, #3]
 8003826:	78a0      	ldrb	r0, [r4, #2]
 8003828:	021b      	lsls	r3, r3, #8
 800382a:	4318      	orrs	r0, r3
 800382c:	b200      	sxth	r0, r0
 800382e:	f7fd fa11 	bl	8000c54 <__aeabi_i2f>
 8003832:	4b1b      	ldr	r3, [pc, #108]	; (80038a0 <HMC5883LRead+0xb8>)
 8003834:	1c05      	adds	r5, r0, #0
 8003836:	6018      	str	r0, [r3, #0]
		  	  Z = (int16_t)(data[4] | ((int16_t)data[5] << 8));
 8003838:	7963      	ldrb	r3, [r4, #5]
 800383a:	7920      	ldrb	r0, [r4, #4]
 800383c:	021b      	lsls	r3, r3, #8
 800383e:	4318      	orrs	r0, r3
 8003840:	b200      	sxth	r0, r0
 8003842:	f7fd fa07 	bl	8000c54 <__aeabi_i2f>
 8003846:	4b17      	ldr	r3, [pc, #92]	; (80038a4 <HMC5883LRead+0xbc>)
 8003848:	1c04      	adds	r4, r0, #0
 800384a:	6018      	str	r0, [r3, #0]

		  	//Hesapla (manyetik vektr deerleri mikro Tesla (uT) cinsindendir)
			     mX = X / Gauss_LSB_XY * GAUSS_TO_MICROTESLA;
 800384c:	4b16      	ldr	r3, [pc, #88]	; (80038a8 <HMC5883LRead+0xc0>)
 800384e:	1c30      	adds	r0, r6, #0
 8003850:	681f      	ldr	r7, [r3, #0]
 8003852:	1c39      	adds	r1, r7, #0
 8003854:	f7fc feee 	bl	8000634 <__aeabi_fdiv>
 8003858:	4914      	ldr	r1, [pc, #80]	; (80038ac <HMC5883LRead+0xc4>)
 800385a:	f7fd f8db 	bl	8000a14 <__aeabi_fmul>
 800385e:	4b14      	ldr	r3, [pc, #80]	; (80038b0 <HMC5883LRead+0xc8>)
			     mY = Y / Gauss_LSB_XY * GAUSS_TO_MICROTESLA;
 8003860:	1c39      	adds	r1, r7, #0
			     mX = X / Gauss_LSB_XY * GAUSS_TO_MICROTESLA;
 8003862:	6018      	str	r0, [r3, #0]
			     mY = Y / Gauss_LSB_XY * GAUSS_TO_MICROTESLA;
 8003864:	1c28      	adds	r0, r5, #0
 8003866:	f7fc fee5 	bl	8000634 <__aeabi_fdiv>
 800386a:	4910      	ldr	r1, [pc, #64]	; (80038ac <HMC5883LRead+0xc4>)
 800386c:	f7fd f8d2 	bl	8000a14 <__aeabi_fmul>
 8003870:	4b10      	ldr	r3, [pc, #64]	; (80038b4 <HMC5883LRead+0xcc>)
 8003872:	6018      	str	r0, [r3, #0]
			     mZ = Z / Gauss_LSB_Z  * GAUSS_TO_MICROTESLA;
 8003874:	4b10      	ldr	r3, [pc, #64]	; (80038b8 <HMC5883LRead+0xd0>)
 8003876:	1c20      	adds	r0, r4, #0
 8003878:	6819      	ldr	r1, [r3, #0]
 800387a:	f7fc fedb 	bl	8000634 <__aeabi_fdiv>
 800387e:	490b      	ldr	r1, [pc, #44]	; (80038ac <HMC5883LRead+0xc4>)
 8003880:	f7fd f8c8 	bl	8000a14 <__aeabi_fmul>
 8003884:	4b0d      	ldr	r3, [pc, #52]	; (80038bc <HMC5883LRead+0xd4>)
 8003886:	6018      	str	r0, [r3, #0]

}
 8003888:	bdf7      	pop	{r0, r1, r2, r4, r5, r6, r7, pc}
 800388a:	46c0      	nop			; (mov r8, r8)
 800388c:	20000008 	.word	0x20000008
 8003890:	20000038 	.word	0x20000038
 8003894:	2000002c 	.word	0x2000002c
 8003898:	20000090 	.word	0x20000090
 800389c:	200000a4 	.word	0x200000a4
 80038a0:	20000088 	.word	0x20000088
 80038a4:	20000098 	.word	0x20000098
 80038a8:	20000000 	.word	0x20000000
 80038ac:	42c80000 	.word	0x42c80000
 80038b0:	2000009c 	.word	0x2000009c
 80038b4:	20000084 	.word	0x20000084
 80038b8:	20000004 	.word	0x20000004
 80038bc:	20000034 	.word	0x20000034

080038c0 <tiltCompensatedAngle>:
	      break;
	  }
}

void tiltCompensatedAngle(void)
{
 80038c0:	b5f8      	push	{r3, r4, r5, r6, r7, lr}
	      Gauss_LSB_XY = 1100;
 80038c2:	4a2a      	ldr	r2, [pc, #168]	; (800396c <tiltCompensatedAngle+0xac>)
 80038c4:	4b2a      	ldr	r3, [pc, #168]	; (8003970 <tiltCompensatedAngle+0xb0>)
 80038c6:	601a      	str	r2, [r3, #0]
	      Gauss_LSB_Z  = 980;
 80038c8:	4a2a      	ldr	r2, [pc, #168]	; (8003974 <tiltCompensatedAngle+0xb4>)
 80038ca:	4b2b      	ldr	r3, [pc, #172]	; (8003978 <tiltCompensatedAngle+0xb8>)
 80038cc:	601a      	str	r2, [r3, #0]
	setGain(HMC5883_MAGGAIN_1_3);
	HMC5883LRead();
 80038ce:	f7ff ff8b 	bl	80037e8 <HMC5883LRead>

	heading=atan2(mY,mX);
 80038d2:	4b2a      	ldr	r3, [pc, #168]	; (800397c <tiltCompensatedAngle+0xbc>)
 80038d4:	6818      	ldr	r0, [r3, #0]
 80038d6:	f7fe fee7 	bl	80026a8 <__aeabi_f2d>
 80038da:	0004      	movs	r4, r0
 80038dc:	000d      	movs	r5, r1
 80038de:	4b28      	ldr	r3, [pc, #160]	; (8003980 <tiltCompensatedAngle+0xc0>)
 80038e0:	6818      	ldr	r0, [r3, #0]
 80038e2:	f7fe fee1 	bl	80026a8 <__aeabi_f2d>
 80038e6:	0022      	movs	r2, r4
 80038e8:	002b      	movs	r3, r5
 80038ea:	f000 f9d8 	bl	8003c9e <atan2>

	declinationAngle=0.0872;
 80038ee:	4c25      	ldr	r4, [pc, #148]	; (8003984 <tiltCompensatedAngle+0xc4>)
 80038f0:	4b25      	ldr	r3, [pc, #148]	; (8003988 <tiltCompensatedAngle+0xc8>)
 80038f2:	601c      	str	r4, [r3, #0]
	heading=atan2(mY,mX);
 80038f4:	f7fe ff2a 	bl	800274c <__aeabi_d2f>
	heading +=declinationAngle;
 80038f8:	1c21      	adds	r1, r4, #0
 80038fa:	f7fc fd09 	bl	8000310 <__aeabi_fadd>

	if(heading < 0)
 80038fe:	2100      	movs	r1, #0
	heading +=declinationAngle;
 8003900:	1c05      	adds	r5, r0, #0
	if(heading < 0)
 8003902:	f7fc fcdd 	bl	80002c0 <__aeabi_fcmplt>
 8003906:	4c21      	ldr	r4, [pc, #132]	; (800398c <tiltCompensatedAngle+0xcc>)
 8003908:	2800      	cmp	r0, #0
 800390a:	d123      	bne.n	8003954 <tiltCompensatedAngle+0x94>
	heading +=declinationAngle;
 800390c:	6025      	str	r5, [r4, #0]
	{
		heading += 2*PI;
	}

	if(heading > PI*2)
 800390e:	6820      	ldr	r0, [r4, #0]
 8003910:	f7fe feca 	bl	80026a8 <__aeabi_f2d>
 8003914:	4a1e      	ldr	r2, [pc, #120]	; (8003990 <tiltCompensatedAngle+0xd0>)
 8003916:	4b1f      	ldr	r3, [pc, #124]	; (8003994 <tiltCompensatedAngle+0xd4>)
 8003918:	0006      	movs	r6, r0
 800391a:	000f      	movs	r7, r1
 800391c:	f7fc fcaa 	bl	8000274 <__aeabi_dcmpgt>
 8003920:	2800      	cmp	r0, #0
 8003922:	d008      	beq.n	8003936 <tiltCompensatedAngle+0x76>
	{
		heading -=2*PI;
 8003924:	4a1a      	ldr	r2, [pc, #104]	; (8003990 <tiltCompensatedAngle+0xd0>)
 8003926:	4b1b      	ldr	r3, [pc, #108]	; (8003994 <tiltCompensatedAngle+0xd4>)
 8003928:	0030      	movs	r0, r6
 800392a:	0039      	movs	r1, r7
 800392c:	f7fe fba6 	bl	800207c <__aeabi_dsub>
 8003930:	f7fe ff0c 	bl	800274c <__aeabi_d2f>
 8003934:	6020      	str	r0, [r4, #0]
	}

	headingDegrees = heading *180/PI;
 8003936:	4918      	ldr	r1, [pc, #96]	; (8003998 <tiltCompensatedAngle+0xd8>)
 8003938:	6820      	ldr	r0, [r4, #0]
 800393a:	f7fd f86b 	bl	8000a14 <__aeabi_fmul>
 800393e:	f7fe feb3 	bl	80026a8 <__aeabi_f2d>
 8003942:	4a13      	ldr	r2, [pc, #76]	; (8003990 <tiltCompensatedAngle+0xd0>)
 8003944:	4b15      	ldr	r3, [pc, #84]	; (800399c <tiltCompensatedAngle+0xdc>)
 8003946:	f7fd fce5 	bl	8001314 <__aeabi_ddiv>
 800394a:	f7fe feff 	bl	800274c <__aeabi_d2f>
 800394e:	4b14      	ldr	r3, [pc, #80]	; (80039a0 <tiltCompensatedAngle+0xe0>)
 8003950:	6018      	str	r0, [r3, #0]


}
 8003952:	bdf8      	pop	{r3, r4, r5, r6, r7, pc}
		heading += 2*PI;
 8003954:	1c28      	adds	r0, r5, #0
 8003956:	f7fe fea7 	bl	80026a8 <__aeabi_f2d>
 800395a:	4a0d      	ldr	r2, [pc, #52]	; (8003990 <tiltCompensatedAngle+0xd0>)
 800395c:	4b0d      	ldr	r3, [pc, #52]	; (8003994 <tiltCompensatedAngle+0xd4>)
 800395e:	f7fd f9c9 	bl	8000cf4 <__aeabi_dadd>
 8003962:	f7fe fef3 	bl	800274c <__aeabi_d2f>
 8003966:	6020      	str	r0, [r4, #0]
 8003968:	e7d1      	b.n	800390e <tiltCompensatedAngle+0x4e>
 800396a:	46c0      	nop			; (mov r8, r8)
 800396c:	44898000 	.word	0x44898000
 8003970:	20000000 	.word	0x20000000
 8003974:	44750000 	.word	0x44750000
 8003978:	20000004 	.word	0x20000004
 800397c:	2000009c 	.word	0x2000009c
 8003980:	20000084 	.word	0x20000084
 8003984:	3db295ea 	.word	0x3db295ea
 8003988:	2000008c 	.word	0x2000008c
 800398c:	200000a8 	.word	0x200000a8
 8003990:	54442eea 	.word	0x54442eea
 8003994:	401921fb 	.word	0x401921fb
 8003998:	43340000 	.word	0x43340000
 800399c:	400921fb 	.word	0x400921fb
 80039a0:	200000a0 	.word	0x200000a0

080039a4 <SystemClock_Config>:

    /**Initializes the CPU, AHB and APB busses clocks 
    */
  RCC_OscInitStruct.OscillatorType = RCC_OSCILLATORTYPE_HSI;
  RCC_OscInitStruct.HSIState = RCC_HSI_ON;
  RCC_OscInitStruct.HSICalibrationValue = 16;
 80039a4:	2310      	movs	r3, #16
{
 80039a6:	b530      	push	{r4, r5, lr}
  RCC_OscInitStruct.PLL.PLLState = RCC_PLL_ON;
  RCC_OscInitStruct.PLL.PLLSource = RCC_PLLSOURCE_HSI;
  RCC_OscInitStruct.PLL.PLLMUL = RCC_PLL_MUL12;
 80039a8:	22a0      	movs	r2, #160	; 0xa0
{
 80039aa:	b097      	sub	sp, #92	; 0x5c
  RCC_OscInitStruct.OscillatorType = RCC_OSCILLATORTYPE_HSI;
 80039ac:	2402      	movs	r4, #2
  RCC_OscInitStruct.HSIState = RCC_HSI_ON;
 80039ae:	2501      	movs	r5, #1
  RCC_OscInitStruct.HSICalibrationValue = 16;
 80039b0:	930e      	str	r3, [sp, #56]	; 0x38
  RCC_OscInitStruct.PLL.PLLSource = RCC_PLLSOURCE_HSI;
 80039b2:	2300      	movs	r3, #0
  RCC_OscInitStruct.PLL.PLLMUL = RCC_PLL_MUL12;
 80039b4:	0392      	lsls	r2, r2, #14
  RCC_OscInitStruct.PLL.PREDIV = RCC_PREDIV_DIV1;
  if (HAL_RCC_OscConfig(&RCC_OscInitStruct) != HAL_OK)
 80039b6:	a80a      	add	r0, sp, #40	; 0x28
  RCC_OscInitStruct.OscillatorType = RCC_OSCILLATORTYPE_HSI;
 80039b8:	940a      	str	r4, [sp, #40]	; 0x28
  RCC_OscInitStruct.HSIState = RCC_HSI_ON;
 80039ba:	950d      	str	r5, [sp, #52]	; 0x34
  RCC_OscInitStruct.PLL.PLLState = RCC_PLL_ON;
 80039bc:	9412      	str	r4, [sp, #72]	; 0x48
  RCC_OscInitStruct.PLL.PLLSource = RCC_PLLSOURCE_HSI;
 80039be:	9313      	str	r3, [sp, #76]	; 0x4c
  RCC_OscInitStruct.PLL.PLLMUL = RCC_PLL_MUL12;
 80039c0:	9214      	str	r2, [sp, #80]	; 0x50
  RCC_OscInitStruct.PLL.PREDIV = RCC_PREDIV_DIV1;
 80039c2:	9315      	str	r3, [sp, #84]	; 0x54
  if (HAL_RCC_OscConfig(&RCC_OscInitStruct) != HAL_OK)
 80039c4:	f7ff fbaa 	bl	800311c <HAL_RCC_OscConfig>
 80039c8:	2800      	cmp	r0, #0
 80039ca:	d000      	beq.n	80039ce <SystemClock_Config+0x2a>
 80039cc:	e7fe      	b.n	80039cc <SystemClock_Config+0x28>
    _Error_Handler(__FILE__, __LINE__);
  }

    /**Initializes the CPU, AHB and APB busses clocks 
    */
  RCC_ClkInitStruct.ClockType = RCC_CLOCKTYPE_HCLK|RCC_CLOCKTYPE_SYSCLK
 80039ce:	2307      	movs	r3, #7
                              |RCC_CLOCKTYPE_PCLK1;
  RCC_ClkInitStruct.SYSCLKSource = RCC_SYSCLKSOURCE_PLLCLK;
  RCC_ClkInitStruct.AHBCLKDivider = RCC_SYSCLK_DIV1;
 80039d0:	9003      	str	r0, [sp, #12]
  RCC_ClkInitStruct.APB1CLKDivider = RCC_HCLK_DIV1;
 80039d2:	9004      	str	r0, [sp, #16]

  if (HAL_RCC_ClockConfig(&RCC_ClkInitStruct, FLASH_LATENCY_1) != HAL_OK)
 80039d4:	0029      	movs	r1, r5
 80039d6:	a801      	add	r0, sp, #4
  RCC_ClkInitStruct.ClockType = RCC_CLOCKTYPE_HCLK|RCC_CLOCKTYPE_SYSCLK
 80039d8:	9301      	str	r3, [sp, #4]
  RCC_ClkInitStruct.SYSCLKSource = RCC_SYSCLKSOURCE_PLLCLK;
 80039da:	9402      	str	r4, [sp, #8]
  if (HAL_RCC_ClockConfig(&RCC_ClkInitStruct, FLASH_LATENCY_1) != HAL_OK)
 80039dc:	f7ff fdb2 	bl	8003544 <HAL_RCC_ClockConfig>
 80039e0:	2800      	cmp	r0, #0
 80039e2:	d000      	beq.n	80039e6 <SystemClock_Config+0x42>
 80039e4:	e7fe      	b.n	80039e4 <SystemClock_Config+0x40>
  {
    _Error_Handler(__FILE__, __LINE__);
  }

  PeriphClkInit.PeriphClockSelection = RCC_PERIPHCLK_I2C1;
 80039e6:	2320      	movs	r3, #32
  PeriphClkInit.I2c1ClockSelection = RCC_I2C1CLKSOURCE_HSI;
 80039e8:	9008      	str	r0, [sp, #32]
  if (HAL_RCCEx_PeriphCLKConfig(&PeriphClkInit) != HAL_OK)
 80039ea:	a805      	add	r0, sp, #20
  PeriphClkInit.PeriphClockSelection = RCC_PERIPHCLK_I2C1;
 80039ec:	9305      	str	r3, [sp, #20]
  if (HAL_RCCEx_PeriphCLKConfig(&PeriphClkInit) != HAL_OK)
 80039ee:	f7ff fe45 	bl	800367c <HAL_RCCEx_PeriphCLKConfig>
 80039f2:	1e04      	subs	r4, r0, #0
 80039f4:	d000      	beq.n	80039f8 <SystemClock_Config+0x54>
 80039f6:	e7fe      	b.n	80039f6 <SystemClock_Config+0x52>
    _Error_Handler(__FILE__, __LINE__);
  }

    /**Configure the Systick interrupt time 
    */
  HAL_SYSTICK_Config(HAL_RCC_GetHCLKFreq()/1000);
 80039f8:	f7ff fe3a 	bl	8003670 <HAL_RCC_GetHCLKFreq>
 80039fc:	21fa      	movs	r1, #250	; 0xfa
 80039fe:	0089      	lsls	r1, r1, #2
 8003a00:	f7fc fb82 	bl	8000108 <__udivsi3>
 8003a04:	f7fe ffba 	bl	800297c <HAL_SYSTICK_Config>

    /**Configure the Systick 
    */
  HAL_SYSTICK_CLKSourceConfig(SYSTICK_CLKSOURCE_HCLK);
 8003a08:	2004      	movs	r0, #4
 8003a0a:	f7fe ffd1 	bl	80029b0 <HAL_SYSTICK_CLKSourceConfig>

  /* SysTick_IRQn interrupt configuration */
  HAL_NVIC_SetPriority(SysTick_IRQn, 0, 0);
 8003a0e:	2001      	movs	r0, #1
 8003a10:	0022      	movs	r2, r4
 8003a12:	0021      	movs	r1, r4
 8003a14:	4240      	negs	r0, r0
 8003a16:	f7fe ff81 	bl	800291c <HAL_NVIC_SetPriority>
}
 8003a1a:	b017      	add	sp, #92	; 0x5c
 8003a1c:	bd30      	pop	{r4, r5, pc}
	...

08003a20 <main>:
{
 8003a20:	b570      	push	{r4, r5, r6, lr}
 8003a22:	b088      	sub	sp, #32
   HAL_Init();
 8003a24:	f7fe ff4c 	bl	80028c0 <HAL_Init>
  SystemClock_Config();
 8003a28:	f7ff ffbc 	bl	80039a4 <SystemClock_Config>
{

  GPIO_InitTypeDef GPIO_InitStruct;

  /* GPIO Ports Clock Enable */
  __HAL_RCC_GPIOF_CLK_ENABLE();
 8003a2c:	2080      	movs	r0, #128	; 0x80
 8003a2e:	4b28      	ldr	r3, [pc, #160]	; (8003ad0 <main+0xb0>)
 8003a30:	03c0      	lsls	r0, r0, #15
 8003a32:	6959      	ldr	r1, [r3, #20]
  __HAL_RCC_GPIOC_CLK_ENABLE();
  __HAL_RCC_GPIOB_CLK_ENABLE();

  /*Configure GPIO pin Output Level */
  HAL_GPIO_WritePin(GPIOC, GPIO_PIN_8|GPIO_PIN_9, GPIO_PIN_RESET);
 8003a34:	24c0      	movs	r4, #192	; 0xc0
  __HAL_RCC_GPIOF_CLK_ENABLE();
 8003a36:	4301      	orrs	r1, r0
 8003a38:	6159      	str	r1, [r3, #20]
 8003a3a:	695a      	ldr	r2, [r3, #20]

  /*Configure GPIO pins : PC8 PC9 */
  GPIO_InitStruct.Pin = GPIO_PIN_8|GPIO_PIN_9;
  GPIO_InitStruct.Mode = GPIO_MODE_OUTPUT_PP;
  GPIO_InitStruct.Pull = GPIO_NOPULL;
 8003a3c:	2500      	movs	r5, #0
  __HAL_RCC_GPIOF_CLK_ENABLE();
 8003a3e:	4002      	ands	r2, r0
  __HAL_RCC_GPIOC_CLK_ENABLE();
 8003a40:	2080      	movs	r0, #128	; 0x80
  __HAL_RCC_GPIOF_CLK_ENABLE();
 8003a42:	9200      	str	r2, [sp, #0]
 8003a44:	9a00      	ldr	r2, [sp, #0]
  __HAL_RCC_GPIOC_CLK_ENABLE();
 8003a46:	6959      	ldr	r1, [r3, #20]
 8003a48:	0300      	lsls	r0, r0, #12
 8003a4a:	4301      	orrs	r1, r0
 8003a4c:	6159      	str	r1, [r3, #20]
  __HAL_RCC_GPIOB_CLK_ENABLE();
 8003a4e:	2180      	movs	r1, #128	; 0x80
  GPIO_InitStruct.Mode = GPIO_MODE_OUTPUT_PP;
 8003a50:	2601      	movs	r6, #1
  __HAL_RCC_GPIOC_CLK_ENABLE();
 8003a52:	695a      	ldr	r2, [r3, #20]
  __HAL_RCC_GPIOB_CLK_ENABLE();
 8003a54:	02c9      	lsls	r1, r1, #11
  __HAL_RCC_GPIOC_CLK_ENABLE();
 8003a56:	4002      	ands	r2, r0
 8003a58:	9201      	str	r2, [sp, #4]
 8003a5a:	9a01      	ldr	r2, [sp, #4]
  __HAL_RCC_GPIOB_CLK_ENABLE();
 8003a5c:	695a      	ldr	r2, [r3, #20]
  HAL_GPIO_WritePin(GPIOC, GPIO_PIN_8|GPIO_PIN_9, GPIO_PIN_RESET);
 8003a5e:	00a4      	lsls	r4, r4, #2
  __HAL_RCC_GPIOB_CLK_ENABLE();
 8003a60:	430a      	orrs	r2, r1
 8003a62:	615a      	str	r2, [r3, #20]
 8003a64:	695b      	ldr	r3, [r3, #20]
  HAL_GPIO_WritePin(GPIOC, GPIO_PIN_8|GPIO_PIN_9, GPIO_PIN_RESET);
 8003a66:	2200      	movs	r2, #0
  __HAL_RCC_GPIOB_CLK_ENABLE();
 8003a68:	400b      	ands	r3, r1
 8003a6a:	9302      	str	r3, [sp, #8]
  HAL_GPIO_WritePin(GPIOC, GPIO_PIN_8|GPIO_PIN_9, GPIO_PIN_RESET);
 8003a6c:	0021      	movs	r1, r4
 8003a6e:	4819      	ldr	r0, [pc, #100]	; (8003ad4 <main+0xb4>)
  __HAL_RCC_GPIOB_CLK_ENABLE();
 8003a70:	9b02      	ldr	r3, [sp, #8]
  HAL_GPIO_WritePin(GPIOC, GPIO_PIN_8|GPIO_PIN_9, GPIO_PIN_RESET);
 8003a72:	f7ff f861 	bl	8002b38 <HAL_GPIO_WritePin>
  GPIO_InitStruct.Speed = GPIO_SPEED_FREQ_LOW;
  HAL_GPIO_Init(GPIOC, &GPIO_InitStruct);
 8003a76:	a903      	add	r1, sp, #12
 8003a78:	4816      	ldr	r0, [pc, #88]	; (8003ad4 <main+0xb4>)
  GPIO_InitStruct.Pin = GPIO_PIN_8|GPIO_PIN_9;
 8003a7a:	9403      	str	r4, [sp, #12]
  GPIO_InitStruct.Mode = GPIO_MODE_OUTPUT_PP;
 8003a7c:	9604      	str	r6, [sp, #16]
  GPIO_InitStruct.Pull = GPIO_NOPULL;
 8003a7e:	9505      	str	r5, [sp, #20]
  GPIO_InitStruct.Speed = GPIO_SPEED_FREQ_LOW;
 8003a80:	9506      	str	r5, [sp, #24]
  HAL_GPIO_Init(GPIOC, &GPIO_InitStruct);
 8003a82:	f7fe ffa9 	bl	80029d8 <HAL_GPIO_Init>
  hi2c1.Instance = I2C1;
 8003a86:	4c14      	ldr	r4, [pc, #80]	; (8003ad8 <main+0xb8>)
 8003a88:	4b14      	ldr	r3, [pc, #80]	; (8003adc <main+0xbc>)
  if (HAL_I2C_Init(&hi2c1) != HAL_OK)
 8003a8a:	0020      	movs	r0, r4
  hi2c1.Instance = I2C1;
 8003a8c:	6023      	str	r3, [r4, #0]
  hi2c1.Init.Timing = 0x2000090E;
 8003a8e:	4b14      	ldr	r3, [pc, #80]	; (8003ae0 <main+0xc0>)
  hi2c1.Init.OwnAddress1 = 0;
 8003a90:	60a5      	str	r5, [r4, #8]
  hi2c1.Init.Timing = 0x2000090E;
 8003a92:	6063      	str	r3, [r4, #4]
  hi2c1.Init.AddressingMode = I2C_ADDRESSINGMODE_7BIT;
 8003a94:	60e6      	str	r6, [r4, #12]
  hi2c1.Init.DualAddressMode = I2C_DUALADDRESS_DISABLE;
 8003a96:	6125      	str	r5, [r4, #16]
  hi2c1.Init.OwnAddress2 = 0;
 8003a98:	6165      	str	r5, [r4, #20]
  hi2c1.Init.OwnAddress2Masks = I2C_OA2_NOMASK;
 8003a9a:	61a5      	str	r5, [r4, #24]
  hi2c1.Init.GeneralCallMode = I2C_GENERALCALL_DISABLE;
 8003a9c:	61e5      	str	r5, [r4, #28]
  hi2c1.Init.NoStretchMode = I2C_NOSTRETCH_DISABLE;
 8003a9e:	6225      	str	r5, [r4, #32]
  if (HAL_I2C_Init(&hi2c1) != HAL_OK)
 8003aa0:	f7ff f96c 	bl	8002d7c <HAL_I2C_Init>
 8003aa4:	0001      	movs	r1, r0
 8003aa6:	42a8      	cmp	r0, r5
 8003aa8:	d000      	beq.n	8003aac <main+0x8c>
 8003aaa:	e7fe      	b.n	8003aaa <main+0x8a>
  if (HAL_I2CEx_ConfigAnalogFilter(&hi2c1, I2C_ANALOGFILTER_ENABLE) != HAL_OK)
 8003aac:	0020      	movs	r0, r4
 8003aae:	f7ff faeb 	bl	8003088 <HAL_I2CEx_ConfigAnalogFilter>
 8003ab2:	1e01      	subs	r1, r0, #0
 8003ab4:	d000      	beq.n	8003ab8 <main+0x98>
 8003ab6:	e7fe      	b.n	8003ab6 <main+0x96>
  if (HAL_I2CEx_ConfigDigitalFilter(&hi2c1, 0) != HAL_OK)
 8003ab8:	0020      	movs	r0, r4
 8003aba:	f7ff fb0b 	bl	80030d4 <HAL_I2CEx_ConfigDigitalFilter>
 8003abe:	2800      	cmp	r0, #0
 8003ac0:	d000      	beq.n	8003ac4 <main+0xa4>
 8003ac2:	e7fe      	b.n	8003ac2 <main+0xa2>
  HMC5883LInit();
 8003ac4:	f7ff fe66 	bl	8003794 <HMC5883LInit>
	  tiltCompensatedAngle();
 8003ac8:	f7ff fefa 	bl	80038c0 <tiltCompensatedAngle>
 8003acc:	e7fc      	b.n	8003ac8 <main+0xa8>
 8003ace:	46c0      	nop			; (mov r8, r8)
 8003ad0:	40021000 	.word	0x40021000
 8003ad4:	48000800 	.word	0x48000800
 8003ad8:	20000038 	.word	0x20000038
 8003adc:	40005400 	.word	0x40005400
 8003ae0:	2000090e 	.word	0x2000090e

08003ae4 <HAL_MspInit>:
/* USER CODE END 0 */
/**
  * Initializes the Global MSP.
  */
void HAL_MspInit(void)
{
 8003ae4:	b507      	push	{r0, r1, r2, lr}
  /* USER CODE BEGIN MspInit 0 */

  /* USER CODE END MspInit 0 */

  __HAL_RCC_SYSCFG_CLK_ENABLE();
 8003ae6:	2001      	movs	r0, #1
 8003ae8:	4b11      	ldr	r3, [pc, #68]	; (8003b30 <HAL_MspInit+0x4c>)
 8003aea:	6999      	ldr	r1, [r3, #24]
 8003aec:	4301      	orrs	r1, r0
 8003aee:	6199      	str	r1, [r3, #24]
  __HAL_RCC_PWR_CLK_ENABLE();
 8003af0:	2180      	movs	r1, #128	; 0x80
  __HAL_RCC_SYSCFG_CLK_ENABLE();
 8003af2:	699a      	ldr	r2, [r3, #24]
  __HAL_RCC_PWR_CLK_ENABLE();
 8003af4:	0549      	lsls	r1, r1, #21
  __HAL_RCC_SYSCFG_CLK_ENABLE();
 8003af6:	4002      	ands	r2, r0
 8003af8:	9200      	str	r2, [sp, #0]
 8003afa:	9a00      	ldr	r2, [sp, #0]
  __HAL_RCC_PWR_CLK_ENABLE();
 8003afc:	69da      	ldr	r2, [r3, #28]

  /* System interrupt init*/
  /* SVC_IRQn interrupt configuration */
  HAL_NVIC_SetPriority(SVC_IRQn, 0, 0);
 8003afe:	3806      	subs	r0, #6
  __HAL_RCC_PWR_CLK_ENABLE();
 8003b00:	430a      	orrs	r2, r1
 8003b02:	61da      	str	r2, [r3, #28]
  HAL_NVIC_SetPriority(SVC_IRQn, 0, 0);
 8003b04:	2200      	movs	r2, #0
  __HAL_RCC_PWR_CLK_ENABLE();
 8003b06:	69db      	ldr	r3, [r3, #28]
 8003b08:	400b      	ands	r3, r1
 8003b0a:	9301      	str	r3, [sp, #4]
  HAL_NVIC_SetPriority(SVC_IRQn, 0, 0);
 8003b0c:	0011      	movs	r1, r2
  __HAL_RCC_PWR_CLK_ENABLE();
 8003b0e:	9b01      	ldr	r3, [sp, #4]
  HAL_NVIC_SetPriority(SVC_IRQn, 0, 0);
 8003b10:	f7fe ff04 	bl	800291c <HAL_NVIC_SetPriority>
  /* PendSV_IRQn interrupt configuration */
  HAL_NVIC_SetPriority(PendSV_IRQn, 0, 0);
 8003b14:	2200      	movs	r2, #0
 8003b16:	2002      	movs	r0, #2
 8003b18:	0011      	movs	r1, r2
 8003b1a:	4240      	negs	r0, r0
 8003b1c:	f7fe fefe 	bl	800291c <HAL_NVIC_SetPriority>
  /* SysTick_IRQn interrupt configuration */
  HAL_NVIC_SetPriority(SysTick_IRQn, 0, 0);
 8003b20:	2200      	movs	r2, #0
 8003b22:	2001      	movs	r0, #1
 8003b24:	0011      	movs	r1, r2
 8003b26:	4240      	negs	r0, r0
 8003b28:	f7fe fef8 	bl	800291c <HAL_NVIC_SetPriority>

  /* USER CODE BEGIN MspInit 1 */

  /* USER CODE END MspInit 1 */
}
 8003b2c:	bd07      	pop	{r0, r1, r2, pc}
 8003b2e:	46c0      	nop			; (mov r8, r8)
 8003b30:	40021000 	.word	0x40021000

08003b34 <HAL_I2C_MspInit>:

void HAL_I2C_MspInit(I2C_HandleTypeDef* hi2c)
{
 8003b34:	b57f      	push	{r0, r1, r2, r3, r4, r5, r6, lr}

  GPIO_InitTypeDef GPIO_InitStruct;
  if(hi2c->Instance==I2C1)
 8003b36:	4b0e      	ldr	r3, [pc, #56]	; (8003b70 <HAL_I2C_MspInit+0x3c>)
 8003b38:	6802      	ldr	r2, [r0, #0]
 8003b3a:	429a      	cmp	r2, r3
 8003b3c:	d116      	bne.n	8003b6c <HAL_I2C_MspInit+0x38>
  
    /**I2C1 GPIO Configuration    
    PB6     ------> I2C1_SCL
    PB7     ------> I2C1_SDA 
    */
    GPIO_InitStruct.Pin = GPIO_PIN_6|GPIO_PIN_7;
 8003b3e:	23c0      	movs	r3, #192	; 0xc0
    GPIO_InitStruct.Mode = GPIO_MODE_AF_OD;
    GPIO_InitStruct.Pull = GPIO_PULLUP;
    GPIO_InitStruct.Speed = GPIO_SPEED_FREQ_HIGH;
 8003b40:	2203      	movs	r2, #3
    GPIO_InitStruct.Pin = GPIO_PIN_6|GPIO_PIN_7;
 8003b42:	9301      	str	r3, [sp, #4]
    GPIO_InitStruct.Mode = GPIO_MODE_AF_OD;
 8003b44:	3bae      	subs	r3, #174	; 0xae
 8003b46:	9302      	str	r3, [sp, #8]
    GPIO_InitStruct.Alternate = GPIO_AF1_I2C1;
    HAL_GPIO_Init(GPIOB, &GPIO_InitStruct);
 8003b48:	a901      	add	r1, sp, #4
    GPIO_InitStruct.Pull = GPIO_PULLUP;
 8003b4a:	3b11      	subs	r3, #17
    HAL_GPIO_Init(GPIOB, &GPIO_InitStruct);
 8003b4c:	4809      	ldr	r0, [pc, #36]	; (8003b74 <HAL_I2C_MspInit+0x40>)
    GPIO_InitStruct.Pull = GPIO_PULLUP;
 8003b4e:	9303      	str	r3, [sp, #12]
    GPIO_InitStruct.Speed = GPIO_SPEED_FREQ_HIGH;
 8003b50:	9204      	str	r2, [sp, #16]
    GPIO_InitStruct.Alternate = GPIO_AF1_I2C1;
 8003b52:	9305      	str	r3, [sp, #20]
    HAL_GPIO_Init(GPIOB, &GPIO_InitStruct);
 8003b54:	f7fe ff40 	bl	80029d8 <HAL_GPIO_Init>

    /* Peripheral clock enable */
    __HAL_RCC_I2C1_CLK_ENABLE();
 8003b58:	2080      	movs	r0, #128	; 0x80
 8003b5a:	4a07      	ldr	r2, [pc, #28]	; (8003b78 <HAL_I2C_MspInit+0x44>)
 8003b5c:	0380      	lsls	r0, r0, #14
 8003b5e:	69d1      	ldr	r1, [r2, #28]
 8003b60:	4301      	orrs	r1, r0
 8003b62:	61d1      	str	r1, [r2, #28]
 8003b64:	69d3      	ldr	r3, [r2, #28]
 8003b66:	4003      	ands	r3, r0
 8003b68:	9300      	str	r3, [sp, #0]
 8003b6a:	9b00      	ldr	r3, [sp, #0]
  /* USER CODE BEGIN I2C1_MspInit 1 */

  /* USER CODE END I2C1_MspInit 1 */
  }

}
 8003b6c:	b007      	add	sp, #28
 8003b6e:	bd00      	pop	{pc}
 8003b70:	40005400 	.word	0x40005400
 8003b74:	48000400 	.word	0x48000400
 8003b78:	40021000 	.word	0x40021000

08003b7c <NMI_Handler>:
 8003b7c:	4770      	bx	lr

08003b7e <HardFault_Handler>:

/**
* @brief This function handles Hard fault interrupt.
*/
void HardFault_Handler(void)
{
 8003b7e:	e7fe      	b.n	8003b7e <HardFault_Handler>

08003b80 <SVC_Handler>:
 8003b80:	4770      	bx	lr

08003b82 <PendSV_Handler>:

  /* USER CODE END PendSV_IRQn 0 */
  /* USER CODE BEGIN PendSV_IRQn 1 */

  /* USER CODE END PendSV_IRQn 1 */
}
 8003b82:	4770      	bx	lr

08003b84 <SysTick_Handler>:

/**
* @brief This function handles System tick timer.
*/
void SysTick_Handler(void)
{
 8003b84:	b510      	push	{r4, lr}
  /* USER CODE BEGIN SysTick_IRQn 0 */

  /* USER CODE END SysTick_IRQn 0 */
  HAL_IncTick();
 8003b86:	f7fe feab 	bl	80028e0 <HAL_IncTick>
  HAL_SYSTICK_IRQHandler();
 8003b8a:	f7fe ff20 	bl	80029ce <HAL_SYSTICK_IRQHandler>
  /* USER CODE BEGIN SysTick_IRQn 1 */

  /* USER CODE END SysTick_IRQn 1 */
}
 8003b8e:	bd10      	pop	{r4, pc}

08003b90 <SystemInit>:
  */
void SystemInit(void)
{
  /* Reset the RCC clock configuration to the default reset state ------------*/
  /* Set HSION bit */
  RCC->CR |= (uint32_t)0x00000001U;
 8003b90:	2101      	movs	r1, #1
 8003b92:	4b11      	ldr	r3, [pc, #68]	; (8003bd8 <SystemInit+0x48>)

#if defined (STM32F051x8) || defined (STM32F058x8)
  /* Reset SW[1:0], HPRE[3:0], PPRE[2:0], ADCPRE and MCOSEL[2:0] bits */
  RCC->CFGR &= (uint32_t)0xF8FFB80CU;
 8003b94:	4811      	ldr	r0, [pc, #68]	; (8003bdc <SystemInit+0x4c>)
  RCC->CR |= (uint32_t)0x00000001U;
 8003b96:	681a      	ldr	r2, [r3, #0]
 8003b98:	430a      	orrs	r2, r1
 8003b9a:	601a      	str	r2, [r3, #0]
  RCC->CFGR &= (uint32_t)0xF8FFB80CU;
 8003b9c:	685a      	ldr	r2, [r3, #4]
 8003b9e:	4002      	ands	r2, r0
 8003ba0:	605a      	str	r2, [r3, #4]
  /* Reset SW[1:0], HPRE[3:0], PPRE[2:0], ADCPRE, MCOSEL[2:0], MCOPRE[2:0] and PLLNODIV bits */
  RCC->CFGR &= (uint32_t)0x08FFB80CU;
#endif /* STM32F051x8 or STM32F058x8 */
  
  /* Reset HSEON, CSSON and PLLON bits */
  RCC->CR &= (uint32_t)0xFEF6FFFFU;
 8003ba2:	681a      	ldr	r2, [r3, #0]
 8003ba4:	480e      	ldr	r0, [pc, #56]	; (8003be0 <SystemInit+0x50>)
 8003ba6:	4002      	ands	r2, r0
 8003ba8:	601a      	str	r2, [r3, #0]

  /* Reset HSEBYP bit */
  RCC->CR &= (uint32_t)0xFFFBFFFFU;
 8003baa:	681a      	ldr	r2, [r3, #0]
 8003bac:	480d      	ldr	r0, [pc, #52]	; (8003be4 <SystemInit+0x54>)
 8003bae:	4002      	ands	r2, r0
 8003bb0:	601a      	str	r2, [r3, #0]

  /* Reset PLLSRC, PLLXTPRE and PLLMUL[3:0] bits */
  RCC->CFGR &= (uint32_t)0xFFC0FFFFU;
 8003bb2:	685a      	ldr	r2, [r3, #4]
 8003bb4:	480c      	ldr	r0, [pc, #48]	; (8003be8 <SystemInit+0x58>)
 8003bb6:	4002      	ands	r2, r0

  /* Reset PREDIV[3:0] bits */
  RCC->CFGR2 &= (uint32_t)0xFFFFFFF0U;
 8003bb8:	200f      	movs	r0, #15
  RCC->CFGR &= (uint32_t)0xFFC0FFFFU;
 8003bba:	605a      	str	r2, [r3, #4]
  RCC->CFGR2 &= (uint32_t)0xFFFFFFF0U;
 8003bbc:	6ada      	ldr	r2, [r3, #44]	; 0x2c
 8003bbe:	4382      	bics	r2, r0
 8003bc0:	62da      	str	r2, [r3, #44]	; 0x2c
#elif defined (STM32F030x6) || defined (STM32F030x8) || defined (STM32F031x6) || defined (STM32F038xx) || defined (STM32F030xC)
  /* Reset USART1SW[1:0], I2C1SW and ADCSW bits */
  RCC->CFGR3 &= (uint32_t)0xFFFFFEECU;
#elif defined (STM32F051x8) || defined (STM32F058xx)
  /* Reset USART1SW[1:0], I2C1SW, CECSW and ADCSW bits */
  RCC->CFGR3 &= (uint32_t)0xFFFFFEACU;
 8003bc2:	6b1a      	ldr	r2, [r3, #48]	; 0x30
 8003bc4:	4809      	ldr	r0, [pc, #36]	; (8003bec <SystemInit+0x5c>)
 8003bc6:	4002      	ands	r2, r0
 8003bc8:	631a      	str	r2, [r3, #48]	; 0x30
#else
 #warning "No target selected"
#endif

  /* Reset HSI14 bit */
  RCC->CR2 &= (uint32_t)0xFFFFFFFEU;
 8003bca:	6b5a      	ldr	r2, [r3, #52]	; 0x34
 8003bcc:	438a      	bics	r2, r1
 8003bce:	635a      	str	r2, [r3, #52]	; 0x34

  /* Disable all interrupts */
  RCC->CIR = 0x00000000U;
 8003bd0:	2200      	movs	r2, #0
 8003bd2:	609a      	str	r2, [r3, #8]

}
 8003bd4:	4770      	bx	lr
 8003bd6:	46c0      	nop			; (mov r8, r8)
 8003bd8:	40021000 	.word	0x40021000
 8003bdc:	f8ffb80c 	.word	0xf8ffb80c
 8003be0:	fef6ffff 	.word	0xfef6ffff
 8003be4:	fffbffff 	.word	0xfffbffff
 8003be8:	ffc0ffff 	.word	0xffc0ffff
 8003bec:	fffffeac 	.word	0xfffffeac

08003bf0 <Reset_Handler>:

  .section .text.Reset_Handler
  .weak Reset_Handler
  .type Reset_Handler, %function
Reset_Handler:
  ldr   r0, =_estack
 8003bf0:	480d      	ldr	r0, [pc, #52]	; (8003c28 <LoopForever+0x2>)
  mov   sp, r0          /* set stack pointer */
 8003bf2:	4685      	mov	sp, r0

/* Copy the data segment initializers from flash to SRAM */
  ldr r0, =_sdata
 8003bf4:	480d      	ldr	r0, [pc, #52]	; (8003c2c <LoopForever+0x6>)
  ldr r1, =_edata
 8003bf6:	490e      	ldr	r1, [pc, #56]	; (8003c30 <LoopForever+0xa>)
  ldr r2, =_sidata
 8003bf8:	4a0e      	ldr	r2, [pc, #56]	; (8003c34 <LoopForever+0xe>)
  movs r3, #0
 8003bfa:	2300      	movs	r3, #0
  b LoopCopyDataInit
 8003bfc:	e002      	b.n	8003c04 <LoopCopyDataInit>

08003bfe <CopyDataInit>:

CopyDataInit:
  ldr r4, [r2, r3]
 8003bfe:	58d4      	ldr	r4, [r2, r3]
  str r4, [r0, r3]
 8003c00:	50c4      	str	r4, [r0, r3]
  adds r3, r3, #4
 8003c02:	3304      	adds	r3, #4

08003c04 <LoopCopyDataInit>:

LoopCopyDataInit:
  adds r4, r0, r3
 8003c04:	18c4      	adds	r4, r0, r3
  cmp r4, r1
 8003c06:	428c      	cmp	r4, r1
  bcc CopyDataInit
 8003c08:	d3f9      	bcc.n	8003bfe <CopyDataInit>
  
/* Zero fill the bss segment. */
  ldr r2, =_sbss
 8003c0a:	4a0b      	ldr	r2, [pc, #44]	; (8003c38 <LoopForever+0x12>)
  ldr r4, =_ebss
 8003c0c:	4c0b      	ldr	r4, [pc, #44]	; (8003c3c <LoopForever+0x16>)
  movs r3, #0
 8003c0e:	2300      	movs	r3, #0
  b LoopFillZerobss
 8003c10:	e001      	b.n	8003c16 <LoopFillZerobss>

08003c12 <FillZerobss>:

FillZerobss:
  str  r3, [r2]
 8003c12:	6013      	str	r3, [r2, #0]
  adds r2, r2, #4
 8003c14:	3204      	adds	r2, #4

08003c16 <LoopFillZerobss>:

LoopFillZerobss:
  cmp r2, r4
 8003c16:	42a2      	cmp	r2, r4
  bcc FillZerobss
 8003c18:	d3fb      	bcc.n	8003c12 <FillZerobss>

/* Call the clock system intitialization function.*/
  bl  SystemInit
 8003c1a:	f7ff ffb9 	bl	8003b90 <SystemInit>
/* Call static constructors */
  bl __libc_init_array
 8003c1e:	f000 f811 	bl	8003c44 <__libc_init_array>
/* Call the application's entry point.*/
  bl main
 8003c22:	f7ff fefd 	bl	8003a20 <main>

08003c26 <LoopForever>:

LoopForever:
    b LoopForever
 8003c26:	e7fe      	b.n	8003c26 <LoopForever>
  ldr   r0, =_estack
 8003c28:	20002000 	.word	0x20002000
  ldr r0, =_sdata
 8003c2c:	20000000 	.word	0x20000000
  ldr r1, =_edata
 8003c30:	20000010 	.word	0x20000010
  ldr r2, =_sidata
 8003c34:	080042f8 	.word	0x080042f8
  ldr r2, =_sbss
 8003c38:	20000010 	.word	0x20000010
  ldr r4, =_ebss
 8003c3c:	200000ac 	.word	0x200000ac

08003c40 <ADC1_COMP_IRQHandler>:
 * @retval : None
*/
    .section .text.Default_Handler,"ax",%progbits
Default_Handler:
Infinite_Loop:
  b Infinite_Loop
 8003c40:	e7fe      	b.n	8003c40 <ADC1_COMP_IRQHandler>
	...

08003c44 <__libc_init_array>:
 8003c44:	b570      	push	{r4, r5, r6, lr}
 8003c46:	2600      	movs	r6, #0
 8003c48:	4d0c      	ldr	r5, [pc, #48]	; (8003c7c <__libc_init_array+0x38>)
 8003c4a:	4c0d      	ldr	r4, [pc, #52]	; (8003c80 <__libc_init_array+0x3c>)
 8003c4c:	1b64      	subs	r4, r4, r5
 8003c4e:	10a4      	asrs	r4, r4, #2
 8003c50:	42a6      	cmp	r6, r4
 8003c52:	d109      	bne.n	8003c68 <__libc_init_array+0x24>
 8003c54:	2600      	movs	r6, #0
 8003c56:	f000 fa65 	bl	8004124 <_init>
 8003c5a:	4d0a      	ldr	r5, [pc, #40]	; (8003c84 <__libc_init_array+0x40>)
 8003c5c:	4c0a      	ldr	r4, [pc, #40]	; (8003c88 <__libc_init_array+0x44>)
 8003c5e:	1b64      	subs	r4, r4, r5
 8003c60:	10a4      	asrs	r4, r4, #2
 8003c62:	42a6      	cmp	r6, r4
 8003c64:	d105      	bne.n	8003c72 <__libc_init_array+0x2e>
 8003c66:	bd70      	pop	{r4, r5, r6, pc}
 8003c68:	00b3      	lsls	r3, r6, #2
 8003c6a:	58eb      	ldr	r3, [r5, r3]
 8003c6c:	4798      	blx	r3
 8003c6e:	3601      	adds	r6, #1
 8003c70:	e7ee      	b.n	8003c50 <__libc_init_array+0xc>
 8003c72:	00b3      	lsls	r3, r6, #2
 8003c74:	58eb      	ldr	r3, [r5, r3]
 8003c76:	4798      	blx	r3
 8003c78:	3601      	adds	r6, #1
 8003c7a:	e7f2      	b.n	8003c62 <__libc_init_array+0x1e>
 8003c7c:	080042f0 	.word	0x080042f0
 8003c80:	080042f0 	.word	0x080042f0
 8003c84:	080042f0 	.word	0x080042f0
 8003c88:	080042f4 	.word	0x080042f4

08003c8c <memcpy>:
 8003c8c:	2300      	movs	r3, #0
 8003c8e:	b510      	push	{r4, lr}
 8003c90:	429a      	cmp	r2, r3
 8003c92:	d100      	bne.n	8003c96 <memcpy+0xa>
 8003c94:	bd10      	pop	{r4, pc}
 8003c96:	5ccc      	ldrb	r4, [r1, r3]
 8003c98:	54c4      	strb	r4, [r0, r3]
 8003c9a:	3301      	adds	r3, #1
 8003c9c:	e7f8      	b.n	8003c90 <memcpy+0x4>

08003c9e <atan2>:
 8003c9e:	b510      	push	{r4, lr}
 8003ca0:	f000 f802 	bl	8003ca8 <__ieee754_atan2>
 8003ca4:	bd10      	pop	{r4, pc}
	...

08003ca8 <__ieee754_atan2>:
 8003ca8:	b5f7      	push	{r0, r1, r2, r4, r5, r6, r7, lr}
 8003caa:	4254      	negs	r4, r2
 8003cac:	005e      	lsls	r6, r3, #1
 8003cae:	4314      	orrs	r4, r2
 8003cb0:	4d48      	ldr	r5, [pc, #288]	; (8003dd4 <__ieee754_atan2+0x12c>)
 8003cb2:	0876      	lsrs	r6, r6, #1
 8003cb4:	0fe4      	lsrs	r4, r4, #31
 8003cb6:	9001      	str	r0, [sp, #4]
 8003cb8:	9100      	str	r1, [sp, #0]
 8003cba:	4334      	orrs	r4, r6
 8003cbc:	42ac      	cmp	r4, r5
 8003cbe:	d808      	bhi.n	8003cd2 <__ieee754_atan2+0x2a>
 8003cc0:	4244      	negs	r4, r0
 8003cc2:	004d      	lsls	r5, r1, #1
 8003cc4:	4304      	orrs	r4, r0
 8003cc6:	4f43      	ldr	r7, [pc, #268]	; (8003dd4 <__ieee754_atan2+0x12c>)
 8003cc8:	086d      	lsrs	r5, r5, #1
 8003cca:	0fe4      	lsrs	r4, r4, #31
 8003ccc:	432c      	orrs	r4, r5
 8003cce:	42bc      	cmp	r4, r7
 8003cd0:	d903      	bls.n	8003cda <__ieee754_atan2+0x32>
 8003cd2:	f7fd f80f 	bl	8000cf4 <__aeabi_dadd>
 8003cd6:	b003      	add	sp, #12
 8003cd8:	bdf0      	pop	{r4, r5, r6, r7, pc}
 8003cda:	4c3f      	ldr	r4, [pc, #252]	; (8003dd8 <__ieee754_atan2+0x130>)
 8003cdc:	191c      	adds	r4, r3, r4
 8003cde:	4314      	orrs	r4, r2
 8003ce0:	d102      	bne.n	8003ce8 <__ieee754_atan2+0x40>
 8003ce2:	f000 f893 	bl	8003e0c <atan>
 8003ce6:	e7f6      	b.n	8003cd6 <__ieee754_atan2+0x2e>
 8003ce8:	179c      	asrs	r4, r3, #30
 8003cea:	46a4      	mov	ip, r4
 8003cec:	2402      	movs	r4, #2
 8003cee:	4667      	mov	r7, ip
 8003cf0:	403c      	ands	r4, r7
 8003cf2:	9f00      	ldr	r7, [sp, #0]
 8003cf4:	0fff      	lsrs	r7, r7, #31
 8003cf6:	433c      	orrs	r4, r7
 8003cf8:	9f01      	ldr	r7, [sp, #4]
 8003cfa:	432f      	orrs	r7, r5
 8003cfc:	d106      	bne.n	8003d0c <__ieee754_atan2+0x64>
 8003cfe:	2c02      	cmp	r4, #2
 8003d00:	d02c      	beq.n	8003d5c <__ieee754_atan2+0xb4>
 8003d02:	2c03      	cmp	r4, #3
 8003d04:	d1e7      	bne.n	8003cd6 <__ieee754_atan2+0x2e>
 8003d06:	4835      	ldr	r0, [pc, #212]	; (8003ddc <__ieee754_atan2+0x134>)
 8003d08:	4935      	ldr	r1, [pc, #212]	; (8003de0 <__ieee754_atan2+0x138>)
 8003d0a:	e7e4      	b.n	8003cd6 <__ieee754_atan2+0x2e>
 8003d0c:	0037      	movs	r7, r6
 8003d0e:	4317      	orrs	r7, r2
 8003d10:	d105      	bne.n	8003d1e <__ieee754_atan2+0x76>
 8003d12:	9b00      	ldr	r3, [sp, #0]
 8003d14:	4831      	ldr	r0, [pc, #196]	; (8003ddc <__ieee754_atan2+0x134>)
 8003d16:	2b00      	cmp	r3, #0
 8003d18:	da59      	bge.n	8003dce <__ieee754_atan2+0x126>
 8003d1a:	4932      	ldr	r1, [pc, #200]	; (8003de4 <__ieee754_atan2+0x13c>)
 8003d1c:	e7db      	b.n	8003cd6 <__ieee754_atan2+0x2e>
 8003d1e:	4f2d      	ldr	r7, [pc, #180]	; (8003dd4 <__ieee754_atan2+0x12c>)
 8003d20:	42be      	cmp	r6, r7
 8003d22:	d11e      	bne.n	8003d62 <__ieee754_atan2+0xba>
 8003d24:	42b5      	cmp	r5, r6
 8003d26:	d10e      	bne.n	8003d46 <__ieee754_atan2+0x9e>
 8003d28:	2c02      	cmp	r4, #2
 8003d2a:	d006      	beq.n	8003d3a <__ieee754_atan2+0x92>
 8003d2c:	2c03      	cmp	r4, #3
 8003d2e:	d007      	beq.n	8003d40 <__ieee754_atan2+0x98>
 8003d30:	482a      	ldr	r0, [pc, #168]	; (8003ddc <__ieee754_atan2+0x134>)
 8003d32:	2c01      	cmp	r4, #1
 8003d34:	d149      	bne.n	8003dca <__ieee754_atan2+0x122>
 8003d36:	492c      	ldr	r1, [pc, #176]	; (8003de8 <__ieee754_atan2+0x140>)
 8003d38:	e7cd      	b.n	8003cd6 <__ieee754_atan2+0x2e>
 8003d3a:	482c      	ldr	r0, [pc, #176]	; (8003dec <__ieee754_atan2+0x144>)
 8003d3c:	492c      	ldr	r1, [pc, #176]	; (8003df0 <__ieee754_atan2+0x148>)
 8003d3e:	e7ca      	b.n	8003cd6 <__ieee754_atan2+0x2e>
 8003d40:	482a      	ldr	r0, [pc, #168]	; (8003dec <__ieee754_atan2+0x144>)
 8003d42:	492c      	ldr	r1, [pc, #176]	; (8003df4 <__ieee754_atan2+0x14c>)
 8003d44:	e7c7      	b.n	8003cd6 <__ieee754_atan2+0x2e>
 8003d46:	2c02      	cmp	r4, #2
 8003d48:	d008      	beq.n	8003d5c <__ieee754_atan2+0xb4>
 8003d4a:	2c03      	cmp	r4, #3
 8003d4c:	d0db      	beq.n	8003d06 <__ieee754_atan2+0x5e>
 8003d4e:	2000      	movs	r0, #0
 8003d50:	2100      	movs	r1, #0
 8003d52:	2c01      	cmp	r4, #1
 8003d54:	d1bf      	bne.n	8003cd6 <__ieee754_atan2+0x2e>
 8003d56:	2180      	movs	r1, #128	; 0x80
 8003d58:	0609      	lsls	r1, r1, #24
 8003d5a:	e7bc      	b.n	8003cd6 <__ieee754_atan2+0x2e>
 8003d5c:	481f      	ldr	r0, [pc, #124]	; (8003ddc <__ieee754_atan2+0x134>)
 8003d5e:	4926      	ldr	r1, [pc, #152]	; (8003df8 <__ieee754_atan2+0x150>)
 8003d60:	e7b9      	b.n	8003cd6 <__ieee754_atan2+0x2e>
 8003d62:	4f1c      	ldr	r7, [pc, #112]	; (8003dd4 <__ieee754_atan2+0x12c>)
 8003d64:	42bd      	cmp	r5, r7
 8003d66:	d0d4      	beq.n	8003d12 <__ieee754_atan2+0x6a>
 8003d68:	1bad      	subs	r5, r5, r6
 8003d6a:	152d      	asrs	r5, r5, #20
 8003d6c:	2d3c      	cmp	r5, #60	; 0x3c
 8003d6e:	dc16      	bgt.n	8003d9e <__ieee754_atan2+0xf6>
 8003d70:	2b00      	cmp	r3, #0
 8003d72:	da01      	bge.n	8003d78 <__ieee754_atan2+0xd0>
 8003d74:	353c      	adds	r5, #60	; 0x3c
 8003d76:	db15      	blt.n	8003da4 <__ieee754_atan2+0xfc>
 8003d78:	f7fd facc 	bl	8001314 <__aeabi_ddiv>
 8003d7c:	f000 f9ce 	bl	800411c <fabs>
 8003d80:	f000 f844 	bl	8003e0c <atan>
 8003d84:	2c01      	cmp	r4, #1
 8003d86:	d010      	beq.n	8003daa <__ieee754_atan2+0x102>
 8003d88:	2c02      	cmp	r4, #2
 8003d8a:	d013      	beq.n	8003db4 <__ieee754_atan2+0x10c>
 8003d8c:	2c00      	cmp	r4, #0
 8003d8e:	d0a2      	beq.n	8003cd6 <__ieee754_atan2+0x2e>
 8003d90:	4a1a      	ldr	r2, [pc, #104]	; (8003dfc <__ieee754_atan2+0x154>)
 8003d92:	4b1b      	ldr	r3, [pc, #108]	; (8003e00 <__ieee754_atan2+0x158>)
 8003d94:	f7fe f972 	bl	800207c <__aeabi_dsub>
 8003d98:	4a10      	ldr	r2, [pc, #64]	; (8003ddc <__ieee754_atan2+0x134>)
 8003d9a:	4b17      	ldr	r3, [pc, #92]	; (8003df8 <__ieee754_atan2+0x150>)
 8003d9c:	e012      	b.n	8003dc4 <__ieee754_atan2+0x11c>
 8003d9e:	480f      	ldr	r0, [pc, #60]	; (8003ddc <__ieee754_atan2+0x134>)
 8003da0:	4918      	ldr	r1, [pc, #96]	; (8003e04 <__ieee754_atan2+0x15c>)
 8003da2:	e7ef      	b.n	8003d84 <__ieee754_atan2+0xdc>
 8003da4:	2000      	movs	r0, #0
 8003da6:	2100      	movs	r1, #0
 8003da8:	e7ec      	b.n	8003d84 <__ieee754_atan2+0xdc>
 8003daa:	2480      	movs	r4, #128	; 0x80
 8003dac:	0624      	lsls	r4, r4, #24
 8003dae:	190b      	adds	r3, r1, r4
 8003db0:	0019      	movs	r1, r3
 8003db2:	e790      	b.n	8003cd6 <__ieee754_atan2+0x2e>
 8003db4:	4a11      	ldr	r2, [pc, #68]	; (8003dfc <__ieee754_atan2+0x154>)
 8003db6:	4b12      	ldr	r3, [pc, #72]	; (8003e00 <__ieee754_atan2+0x158>)
 8003db8:	f7fe f960 	bl	800207c <__aeabi_dsub>
 8003dbc:	0002      	movs	r2, r0
 8003dbe:	000b      	movs	r3, r1
 8003dc0:	4806      	ldr	r0, [pc, #24]	; (8003ddc <__ieee754_atan2+0x134>)
 8003dc2:	490d      	ldr	r1, [pc, #52]	; (8003df8 <__ieee754_atan2+0x150>)
 8003dc4:	f7fe f95a 	bl	800207c <__aeabi_dsub>
 8003dc8:	e785      	b.n	8003cd6 <__ieee754_atan2+0x2e>
 8003dca:	490f      	ldr	r1, [pc, #60]	; (8003e08 <__ieee754_atan2+0x160>)
 8003dcc:	e783      	b.n	8003cd6 <__ieee754_atan2+0x2e>
 8003dce:	490d      	ldr	r1, [pc, #52]	; (8003e04 <__ieee754_atan2+0x15c>)
 8003dd0:	e781      	b.n	8003cd6 <__ieee754_atan2+0x2e>
 8003dd2:	46c0      	nop			; (mov r8, r8)
 8003dd4:	7ff00000 	.word	0x7ff00000
 8003dd8:	c0100000 	.word	0xc0100000
 8003ddc:	54442d18 	.word	0x54442d18
 8003de0:	c00921fb 	.word	0xc00921fb
 8003de4:	bff921fb 	.word	0xbff921fb
 8003de8:	bfe921fb 	.word	0xbfe921fb
 8003dec:	7f3321d2 	.word	0x7f3321d2
 8003df0:	4002d97c 	.word	0x4002d97c
 8003df4:	c002d97c 	.word	0xc002d97c
 8003df8:	400921fb 	.word	0x400921fb
 8003dfc:	33145c07 	.word	0x33145c07
 8003e00:	3ca1a626 	.word	0x3ca1a626
 8003e04:	3ff921fb 	.word	0x3ff921fb
 8003e08:	3fe921fb 	.word	0x3fe921fb

08003e0c <atan>:
 8003e0c:	b5f0      	push	{r4, r5, r6, r7, lr}
 8003e0e:	4b9c      	ldr	r3, [pc, #624]	; (8004080 <atan+0x274>)
 8003e10:	b085      	sub	sp, #20
 8003e12:	004e      	lsls	r6, r1, #1
 8003e14:	0004      	movs	r4, r0
 8003e16:	000d      	movs	r5, r1
 8003e18:	9103      	str	r1, [sp, #12]
 8003e1a:	0876      	lsrs	r6, r6, #1
 8003e1c:	429e      	cmp	r6, r3
 8003e1e:	dd18      	ble.n	8003e52 <atan+0x46>
 8003e20:	4b98      	ldr	r3, [pc, #608]	; (8004084 <atan+0x278>)
 8003e22:	429e      	cmp	r6, r3
 8003e24:	dc02      	bgt.n	8003e2c <atan+0x20>
 8003e26:	d10a      	bne.n	8003e3e <atan+0x32>
 8003e28:	2800      	cmp	r0, #0
 8003e2a:	d008      	beq.n	8003e3e <atan+0x32>
 8003e2c:	0022      	movs	r2, r4
 8003e2e:	002b      	movs	r3, r5
 8003e30:	0020      	movs	r0, r4
 8003e32:	0029      	movs	r1, r5
 8003e34:	f7fc ff5e 	bl	8000cf4 <__aeabi_dadd>
 8003e38:	0004      	movs	r4, r0
 8003e3a:	000d      	movs	r5, r1
 8003e3c:	e005      	b.n	8003e4a <atan+0x3e>
 8003e3e:	9b03      	ldr	r3, [sp, #12]
 8003e40:	4c91      	ldr	r4, [pc, #580]	; (8004088 <atan+0x27c>)
 8003e42:	2b00      	cmp	r3, #0
 8003e44:	dd00      	ble.n	8003e48 <atan+0x3c>
 8003e46:	e118      	b.n	800407a <atan+0x26e>
 8003e48:	4d90      	ldr	r5, [pc, #576]	; (800408c <atan+0x280>)
 8003e4a:	0020      	movs	r0, r4
 8003e4c:	0029      	movs	r1, r5
 8003e4e:	b005      	add	sp, #20
 8003e50:	bdf0      	pop	{r4, r5, r6, r7, pc}
 8003e52:	4b8f      	ldr	r3, [pc, #572]	; (8004090 <atan+0x284>)
 8003e54:	429e      	cmp	r6, r3
 8003e56:	dc0f      	bgt.n	8003e78 <atan+0x6c>
 8003e58:	4b8e      	ldr	r3, [pc, #568]	; (8004094 <atan+0x288>)
 8003e5a:	429e      	cmp	r6, r3
 8003e5c:	dc09      	bgt.n	8003e72 <atan+0x66>
 8003e5e:	4a8e      	ldr	r2, [pc, #568]	; (8004098 <atan+0x28c>)
 8003e60:	4b8e      	ldr	r3, [pc, #568]	; (800409c <atan+0x290>)
 8003e62:	f7fc ff47 	bl	8000cf4 <__aeabi_dadd>
 8003e66:	2200      	movs	r2, #0
 8003e68:	4b8d      	ldr	r3, [pc, #564]	; (80040a0 <atan+0x294>)
 8003e6a:	f7fc fa03 	bl	8000274 <__aeabi_dcmpgt>
 8003e6e:	2800      	cmp	r0, #0
 8003e70:	d1eb      	bne.n	8003e4a <atan+0x3e>
 8003e72:	2301      	movs	r3, #1
 8003e74:	425b      	negs	r3, r3
 8003e76:	e025      	b.n	8003ec4 <atan+0xb8>
 8003e78:	f000 f950 	bl	800411c <fabs>
 8003e7c:	4b89      	ldr	r3, [pc, #548]	; (80040a4 <atan+0x298>)
 8003e7e:	0004      	movs	r4, r0
 8003e80:	000d      	movs	r5, r1
 8003e82:	429e      	cmp	r6, r3
 8003e84:	dd00      	ble.n	8003e88 <atan+0x7c>
 8003e86:	e0aa      	b.n	8003fde <atan+0x1d2>
 8003e88:	4b87      	ldr	r3, [pc, #540]	; (80040a8 <atan+0x29c>)
 8003e8a:	429e      	cmp	r6, r3
 8003e8c:	dd00      	ble.n	8003e90 <atan+0x84>
 8003e8e:	e090      	b.n	8003fb2 <atan+0x1a6>
 8003e90:	0002      	movs	r2, r0
 8003e92:	000b      	movs	r3, r1
 8003e94:	f7fc ff2e 	bl	8000cf4 <__aeabi_dadd>
 8003e98:	2200      	movs	r2, #0
 8003e9a:	4b81      	ldr	r3, [pc, #516]	; (80040a0 <atan+0x294>)
 8003e9c:	f7fe f8ee 	bl	800207c <__aeabi_dsub>
 8003ea0:	2380      	movs	r3, #128	; 0x80
 8003ea2:	0006      	movs	r6, r0
 8003ea4:	000f      	movs	r7, r1
 8003ea6:	2200      	movs	r2, #0
 8003ea8:	05db      	lsls	r3, r3, #23
 8003eaa:	0020      	movs	r0, r4
 8003eac:	0029      	movs	r1, r5
 8003eae:	f7fc ff21 	bl	8000cf4 <__aeabi_dadd>
 8003eb2:	000b      	movs	r3, r1
 8003eb4:	0002      	movs	r2, r0
 8003eb6:	0039      	movs	r1, r7
 8003eb8:	0030      	movs	r0, r6
 8003eba:	f7fd fa2b 	bl	8001314 <__aeabi_ddiv>
 8003ebe:	2300      	movs	r3, #0
 8003ec0:	0004      	movs	r4, r0
 8003ec2:	000d      	movs	r5, r1
 8003ec4:	9302      	str	r3, [sp, #8]
 8003ec6:	0022      	movs	r2, r4
 8003ec8:	002b      	movs	r3, r5
 8003eca:	0020      	movs	r0, r4
 8003ecc:	0029      	movs	r1, r5
 8003ece:	f7fd fe55 	bl	8001b7c <__aeabi_dmul>
 8003ed2:	0002      	movs	r2, r0
 8003ed4:	000b      	movs	r3, r1
 8003ed6:	9000      	str	r0, [sp, #0]
 8003ed8:	9101      	str	r1, [sp, #4]
 8003eda:	f7fd fe4f 	bl	8001b7c <__aeabi_dmul>
 8003ede:	0006      	movs	r6, r0
 8003ee0:	000f      	movs	r7, r1
 8003ee2:	4a72      	ldr	r2, [pc, #456]	; (80040ac <atan+0x2a0>)
 8003ee4:	4b72      	ldr	r3, [pc, #456]	; (80040b0 <atan+0x2a4>)
 8003ee6:	f7fd fe49 	bl	8001b7c <__aeabi_dmul>
 8003eea:	4a72      	ldr	r2, [pc, #456]	; (80040b4 <atan+0x2a8>)
 8003eec:	4b72      	ldr	r3, [pc, #456]	; (80040b8 <atan+0x2ac>)
 8003eee:	f7fc ff01 	bl	8000cf4 <__aeabi_dadd>
 8003ef2:	0032      	movs	r2, r6
 8003ef4:	003b      	movs	r3, r7
 8003ef6:	f7fd fe41 	bl	8001b7c <__aeabi_dmul>
 8003efa:	4a70      	ldr	r2, [pc, #448]	; (80040bc <atan+0x2b0>)
 8003efc:	4b70      	ldr	r3, [pc, #448]	; (80040c0 <atan+0x2b4>)
 8003efe:	f7fc fef9 	bl	8000cf4 <__aeabi_dadd>
 8003f02:	0032      	movs	r2, r6
 8003f04:	003b      	movs	r3, r7
 8003f06:	f7fd fe39 	bl	8001b7c <__aeabi_dmul>
 8003f0a:	4a6e      	ldr	r2, [pc, #440]	; (80040c4 <atan+0x2b8>)
 8003f0c:	4b6e      	ldr	r3, [pc, #440]	; (80040c8 <atan+0x2bc>)
 8003f0e:	f7fc fef1 	bl	8000cf4 <__aeabi_dadd>
 8003f12:	0032      	movs	r2, r6
 8003f14:	003b      	movs	r3, r7
 8003f16:	f7fd fe31 	bl	8001b7c <__aeabi_dmul>
 8003f1a:	4a6c      	ldr	r2, [pc, #432]	; (80040cc <atan+0x2c0>)
 8003f1c:	4b6c      	ldr	r3, [pc, #432]	; (80040d0 <atan+0x2c4>)
 8003f1e:	f7fc fee9 	bl	8000cf4 <__aeabi_dadd>
 8003f22:	0032      	movs	r2, r6
 8003f24:	003b      	movs	r3, r7
 8003f26:	f7fd fe29 	bl	8001b7c <__aeabi_dmul>
 8003f2a:	4a6a      	ldr	r2, [pc, #424]	; (80040d4 <atan+0x2c8>)
 8003f2c:	4b6a      	ldr	r3, [pc, #424]	; (80040d8 <atan+0x2cc>)
 8003f2e:	f7fc fee1 	bl	8000cf4 <__aeabi_dadd>
 8003f32:	9a00      	ldr	r2, [sp, #0]
 8003f34:	9b01      	ldr	r3, [sp, #4]
 8003f36:	f7fd fe21 	bl	8001b7c <__aeabi_dmul>
 8003f3a:	4a68      	ldr	r2, [pc, #416]	; (80040dc <atan+0x2d0>)
 8003f3c:	9000      	str	r0, [sp, #0]
 8003f3e:	9101      	str	r1, [sp, #4]
 8003f40:	4b67      	ldr	r3, [pc, #412]	; (80040e0 <atan+0x2d4>)
 8003f42:	0030      	movs	r0, r6
 8003f44:	0039      	movs	r1, r7
 8003f46:	f7fd fe19 	bl	8001b7c <__aeabi_dmul>
 8003f4a:	4a66      	ldr	r2, [pc, #408]	; (80040e4 <atan+0x2d8>)
 8003f4c:	4b66      	ldr	r3, [pc, #408]	; (80040e8 <atan+0x2dc>)
 8003f4e:	f7fe f895 	bl	800207c <__aeabi_dsub>
 8003f52:	0032      	movs	r2, r6
 8003f54:	003b      	movs	r3, r7
 8003f56:	f7fd fe11 	bl	8001b7c <__aeabi_dmul>
 8003f5a:	4a64      	ldr	r2, [pc, #400]	; (80040ec <atan+0x2e0>)
 8003f5c:	4b64      	ldr	r3, [pc, #400]	; (80040f0 <atan+0x2e4>)
 8003f5e:	f7fe f88d 	bl	800207c <__aeabi_dsub>
 8003f62:	0032      	movs	r2, r6
 8003f64:	003b      	movs	r3, r7
 8003f66:	f7fd fe09 	bl	8001b7c <__aeabi_dmul>
 8003f6a:	4a62      	ldr	r2, [pc, #392]	; (80040f4 <atan+0x2e8>)
 8003f6c:	4b62      	ldr	r3, [pc, #392]	; (80040f8 <atan+0x2ec>)
 8003f6e:	f7fe f885 	bl	800207c <__aeabi_dsub>
 8003f72:	0032      	movs	r2, r6
 8003f74:	003b      	movs	r3, r7
 8003f76:	f7fd fe01 	bl	8001b7c <__aeabi_dmul>
 8003f7a:	4a60      	ldr	r2, [pc, #384]	; (80040fc <atan+0x2f0>)
 8003f7c:	4b60      	ldr	r3, [pc, #384]	; (8004100 <atan+0x2f4>)
 8003f7e:	f7fe f87d 	bl	800207c <__aeabi_dsub>
 8003f82:	0032      	movs	r2, r6
 8003f84:	003b      	movs	r3, r7
 8003f86:	f7fd fdf9 	bl	8001b7c <__aeabi_dmul>
 8003f8a:	000b      	movs	r3, r1
 8003f8c:	9902      	ldr	r1, [sp, #8]
 8003f8e:	0002      	movs	r2, r0
 8003f90:	3101      	adds	r1, #1
 8003f92:	d14b      	bne.n	800402c <atan+0x220>
 8003f94:	9800      	ldr	r0, [sp, #0]
 8003f96:	9901      	ldr	r1, [sp, #4]
 8003f98:	f7fc feac 	bl	8000cf4 <__aeabi_dadd>
 8003f9c:	0022      	movs	r2, r4
 8003f9e:	002b      	movs	r3, r5
 8003fa0:	f7fd fdec 	bl	8001b7c <__aeabi_dmul>
 8003fa4:	0002      	movs	r2, r0
 8003fa6:	000b      	movs	r3, r1
 8003fa8:	0020      	movs	r0, r4
 8003faa:	0029      	movs	r1, r5
 8003fac:	f7fe f866 	bl	800207c <__aeabi_dsub>
 8003fb0:	e742      	b.n	8003e38 <atan+0x2c>
 8003fb2:	2200      	movs	r2, #0
 8003fb4:	4b3a      	ldr	r3, [pc, #232]	; (80040a0 <atan+0x294>)
 8003fb6:	f7fe f861 	bl	800207c <__aeabi_dsub>
 8003fba:	2200      	movs	r2, #0
 8003fbc:	0006      	movs	r6, r0
 8003fbe:	000f      	movs	r7, r1
 8003fc0:	4b37      	ldr	r3, [pc, #220]	; (80040a0 <atan+0x294>)
 8003fc2:	0020      	movs	r0, r4
 8003fc4:	0029      	movs	r1, r5
 8003fc6:	f7fc fe95 	bl	8000cf4 <__aeabi_dadd>
 8003fca:	000b      	movs	r3, r1
 8003fcc:	0002      	movs	r2, r0
 8003fce:	0039      	movs	r1, r7
 8003fd0:	0030      	movs	r0, r6
 8003fd2:	f7fd f99f 	bl	8001314 <__aeabi_ddiv>
 8003fd6:	2301      	movs	r3, #1
 8003fd8:	0004      	movs	r4, r0
 8003fda:	000d      	movs	r5, r1
 8003fdc:	e772      	b.n	8003ec4 <atan+0xb8>
 8003fde:	4b49      	ldr	r3, [pc, #292]	; (8004104 <atan+0x2f8>)
 8003fe0:	429e      	cmp	r6, r3
 8003fe2:	dc19      	bgt.n	8004018 <atan+0x20c>
 8003fe4:	2200      	movs	r2, #0
 8003fe6:	4b48      	ldr	r3, [pc, #288]	; (8004108 <atan+0x2fc>)
 8003fe8:	f7fe f848 	bl	800207c <__aeabi_dsub>
 8003fec:	2200      	movs	r2, #0
 8003fee:	0006      	movs	r6, r0
 8003ff0:	000f      	movs	r7, r1
 8003ff2:	4b45      	ldr	r3, [pc, #276]	; (8004108 <atan+0x2fc>)
 8003ff4:	0020      	movs	r0, r4
 8003ff6:	0029      	movs	r1, r5
 8003ff8:	f7fd fdc0 	bl	8001b7c <__aeabi_dmul>
 8003ffc:	2200      	movs	r2, #0
 8003ffe:	4b28      	ldr	r3, [pc, #160]	; (80040a0 <atan+0x294>)
 8004000:	f7fc fe78 	bl	8000cf4 <__aeabi_dadd>
 8004004:	000b      	movs	r3, r1
 8004006:	0002      	movs	r2, r0
 8004008:	0039      	movs	r1, r7
 800400a:	0030      	movs	r0, r6
 800400c:	f7fd f982 	bl	8001314 <__aeabi_ddiv>
 8004010:	2302      	movs	r3, #2
 8004012:	0004      	movs	r4, r0
 8004014:	000d      	movs	r5, r1
 8004016:	e755      	b.n	8003ec4 <atan+0xb8>
 8004018:	000b      	movs	r3, r1
 800401a:	0002      	movs	r2, r0
 800401c:	493b      	ldr	r1, [pc, #236]	; (800410c <atan+0x300>)
 800401e:	2000      	movs	r0, #0
 8004020:	f7fd f978 	bl	8001314 <__aeabi_ddiv>
 8004024:	2303      	movs	r3, #3
 8004026:	0004      	movs	r4, r0
 8004028:	000d      	movs	r5, r1
 800402a:	e74b      	b.n	8003ec4 <atan+0xb8>
 800402c:	9902      	ldr	r1, [sp, #8]
 800402e:	4f38      	ldr	r7, [pc, #224]	; (8004110 <atan+0x304>)
 8004030:	00ce      	lsls	r6, r1, #3
 8004032:	9800      	ldr	r0, [sp, #0]
 8004034:	9901      	ldr	r1, [sp, #4]
 8004036:	f7fc fe5d 	bl	8000cf4 <__aeabi_dadd>
 800403a:	0022      	movs	r2, r4
 800403c:	002b      	movs	r3, r5
 800403e:	f7fd fd9d 	bl	8001b7c <__aeabi_dmul>
 8004042:	4b34      	ldr	r3, [pc, #208]	; (8004114 <atan+0x308>)
 8004044:	19bf      	adds	r7, r7, r6
 8004046:	199e      	adds	r6, r3, r6
 8004048:	6832      	ldr	r2, [r6, #0]
 800404a:	6873      	ldr	r3, [r6, #4]
 800404c:	f7fe f816 	bl	800207c <__aeabi_dsub>
 8004050:	0022      	movs	r2, r4
 8004052:	002b      	movs	r3, r5
 8004054:	f7fe f812 	bl	800207c <__aeabi_dsub>
 8004058:	000b      	movs	r3, r1
 800405a:	0002      	movs	r2, r0
 800405c:	6838      	ldr	r0, [r7, #0]
 800405e:	6879      	ldr	r1, [r7, #4]
 8004060:	f7fe f80c 	bl	800207c <__aeabi_dsub>
 8004064:	9b03      	ldr	r3, [sp, #12]
 8004066:	0004      	movs	r4, r0
 8004068:	000d      	movs	r5, r1
 800406a:	2b00      	cmp	r3, #0
 800406c:	db00      	blt.n	8004070 <atan+0x264>
 800406e:	e6ec      	b.n	8003e4a <atan+0x3e>
 8004070:	2180      	movs	r1, #128	; 0x80
 8004072:	0609      	lsls	r1, r1, #24
 8004074:	186b      	adds	r3, r5, r1
 8004076:	001d      	movs	r5, r3
 8004078:	e6e7      	b.n	8003e4a <atan+0x3e>
 800407a:	4d27      	ldr	r5, [pc, #156]	; (8004118 <atan+0x30c>)
 800407c:	e6e5      	b.n	8003e4a <atan+0x3e>
 800407e:	46c0      	nop			; (mov r8, r8)
 8004080:	440fffff 	.word	0x440fffff
 8004084:	7ff00000 	.word	0x7ff00000
 8004088:	54442d18 	.word	0x54442d18
 800408c:	bff921fb 	.word	0xbff921fb
 8004090:	3fdbffff 	.word	0x3fdbffff
 8004094:	3e1fffff 	.word	0x3e1fffff
 8004098:	8800759c 	.word	0x8800759c
 800409c:	7e37e43c 	.word	0x7e37e43c
 80040a0:	3ff00000 	.word	0x3ff00000
 80040a4:	3ff2ffff 	.word	0x3ff2ffff
 80040a8:	3fe5ffff 	.word	0x3fe5ffff
 80040ac:	e322da11 	.word	0xe322da11
 80040b0:	3f90ad3a 	.word	0x3f90ad3a
 80040b4:	24760deb 	.word	0x24760deb
 80040b8:	3fa97b4b 	.word	0x3fa97b4b
 80040bc:	a0d03d51 	.word	0xa0d03d51
 80040c0:	3fb10d66 	.word	0x3fb10d66
 80040c4:	c54c206e 	.word	0xc54c206e
 80040c8:	3fb745cd 	.word	0x3fb745cd
 80040cc:	920083ff 	.word	0x920083ff
 80040d0:	3fc24924 	.word	0x3fc24924
 80040d4:	5555550d 	.word	0x5555550d
 80040d8:	3fd55555 	.word	0x3fd55555
 80040dc:	2c6a6c2f 	.word	0x2c6a6c2f
 80040e0:	bfa2b444 	.word	0xbfa2b444
 80040e4:	52defd9a 	.word	0x52defd9a
 80040e8:	3fadde2d 	.word	0x3fadde2d
 80040ec:	af749a6d 	.word	0xaf749a6d
 80040f0:	3fb3b0f2 	.word	0x3fb3b0f2
 80040f4:	fe231671 	.word	0xfe231671
 80040f8:	3fbc71c6 	.word	0x3fbc71c6
 80040fc:	9998ebc4 	.word	0x9998ebc4
 8004100:	3fc99999 	.word	0x3fc99999
 8004104:	40037fff 	.word	0x40037fff
 8004108:	3ff80000 	.word	0x3ff80000
 800410c:	bff00000 	.word	0xbff00000
 8004110:	080042b0 	.word	0x080042b0
 8004114:	080042d0 	.word	0x080042d0
 8004118:	3ff921fb 	.word	0x3ff921fb

0800411c <fabs>:
 800411c:	0049      	lsls	r1, r1, #1
 800411e:	084b      	lsrs	r3, r1, #1
 8004120:	0019      	movs	r1, r3
 8004122:	4770      	bx	lr

08004124 <_init>:
 8004124:	b5f8      	push	{r3, r4, r5, r6, r7, lr}
 8004126:	46c0      	nop			; (mov r8, r8)
 8004128:	bcf8      	pop	{r3, r4, r5, r6, r7}
 800412a:	bc08      	pop	{r3}
 800412c:	469e      	mov	lr, r3
 800412e:	4770      	bx	lr

08004130 <_fini>:
 8004130:	b5f8      	push	{r3, r4, r5, r6, r7, lr}
 8004132:	46c0      	nop			; (mov r8, r8)
 8004134:	bcf8      	pop	{r3, r4, r5, r6, r7}
 8004136:	bc08      	pop	{r3}
 8004138:	469e      	mov	lr, r3
 800413a:	4770      	bx	lr
